

Microchip Technology PIC LITE Macro Assembler V2.00 build -1524193055 
                                                                                               Thu May 13 16:49:28 2021

Microchip Technology Omniscient Code Generator v2.00 (Free mode) build 20180527130849
     1  0000                     
      + 0000                     
     2                           ; Version 2.00
     3                           ; Generated 27/05/2018 GMT
     4                           
     5                           ; 
     6                           ; Copyright © 2018, Microchip Technology Inc. and its subsidiaries ("Microchip")
     7                           ; All rights reserved.
     8                           ; 
     9                           ; This software is developed by Microchip Technology Inc. and its subsidiaries ("Microch
                                 ip").
    10                           ; 
    11                           ; Redistribution and use in source and binary forms, with or without modification, are
    12                           ; permitted provided that the following conditions are met:
    13                           ; 
    14                           ;     1. Redistributions of source code must retain the above copyright notice, this lis
                                 t of
    15                           ;        conditions and the following disclaimer.
    16                           ; 
    17                           ;     2. Redistributions in binary form must reproduce the above copyright notice, this 
                                 list
    18                           ;        of conditions and the following disclaimer in the documentation and/or other
    19                           ;        materials provided with the distribution.
    20                           ; 
    21                           ;     3. Microchip's name may not be used to endorse or promote products derived from th
                                 is
    22                           ;        software without specific prior written permission.
    23                           ; 
    24                           ; THIS SOFTWARE IS PROVIDED BY MICROCHIP "AS IS" AND ANY EXPRESS OR IMPLIED WARRANTIES,

    25                           ; INCLUDING, BUT NOT LIMITED TO, THE IMPLIED WARRANTIES OF MERCHANTABILITY AND FITNESS F
                                 OR
    26                           ; PURPOSE ARE DISCLAIMED.  IN NO EVENT SHALL MICROCHIP BE LIABLE FOR ANY DIRECT, INDIREC
                                 T,
    27                           ; INCIDENTAL, SPECIAL, EXEMPLARY, OR CONSEQUENTIAL DAMAGES (INCLUDING BUT NOT LIMITED TO
                                 
    28                           ; PROCUREMENT OF SUBSTITUTE GOODS OR SERVICES; LOSS OF USE, DATA OR PROFITS; OR BUSINESS
                                 
    29                           ; INTERRUPTION) HOWSOEVER CAUSED AND ON ANY THEORY OF LIABILITY, WHETHER IN CONTRACT, ST
                                 RICT
    30                           ; LIABILITY, OR TORT (INCLUDING NEGLIGENCE OR OTHERWISE) ARISING IN ANY WAY OUT OF THE U
                                 SE OF
    31                           ; THIS SOFTWARE, EVEN IF ADVISED OF THE POSSIBILITY OF SUCH DAMAGE.
    32                           ; 
    33                           
    34                           
    35                           ; 
    36                           ; Code-generator required, PIC16F887 Definitions
    37                           ; 
    38  0004                     fsr0 equ 04h
    39  0004                     indf equ 00h
    40  0000                     indf0 equ 00h
    41  0000                     pc equ 02h
    42  0002                     pcl equ 02h
    43  0002                     pclath equ 0Ah
    44  000A                     status equ 03h
    45  0003                     
     2                           opt pagewidth 120
     3  0000                     byte0	macro	val
     4                           	(getbyte(val,0))
     5                           endm
     6  0000                     byte1	macro	val
     7                           	(getbyte(val,1))
     8                           endm
     9  0000                     byte2	macro	val
    10                           	(getbyte(val,2))
    11                           endm
    12  0000                     byte3	macro	val
    13                           	(getbyte(val,3))
    14                           endm
    15  0000                     byte4	macro	val
    16                           	(getbyte(val,4))
    17                           endm
    18  0000                     byte5	macro	val
    19                           	(getbyte(val,5))
    20                           endm
    21  0000                     byte6	macro	val
    22                           	(getbyte(val,6))
    23                           endm
    24  0000                     byte7	macro	val
    25                           	(getbyte(val,7))
    26                           endm
    27  0000                     getword	macro	val,pos
    28                           	(((val) >> (8 * pos)) and 0xffff)
    29                           endm
    30  0000                     word0	macro	val
    31                           	(getword(val,0))
    32                           endm
    33  0000                     word1	macro	val
    34                           	(getword(val,2))
    35                           endm
    36  0000                     word2	macro	val
    37                           	(getword(val,4))
    38                           endm
    39  0000                     word3	macro	val
    40                           	(getword(val,6))
    41                           endm
    42  0000                     gettword	macro	val,pos
    43                           	(((val) >> (8 * pos)) and 0xffffff)
    44                           endm
    45  0000                     tword0	macro	val
    46                           	(gettword(val,0))
    47                           endm
    48  0000                     tword1	macro	val
    49                           	(gettword(val,3))
    50                           endm
    51  0000                     tword2	macro	val
    52                           	(gettword(val,6))
    53                           endm
    54  0000                     getdword	macro	val,pos
    55                           	(((val) >> (8 * pos)) and 0xffffffff)
    56                           endm
    57  0000                     dword0	macro	val
    58                           	(getdword(val,0))
    59                           endm
    60  0000                     dword1	macro	val
    61                           	(getdword(val,4))
    62                           endm
    63  0000                     clrc	macro
    64                           	bcf	3,0
    65                           	endm
    66  0000                     clrz	macro
    67                           	bcf	3,2
    68                           	endm
    69  0000                     setc	macro
    70                           	bsf	3,0
    71                           	endm
    72  0000                     setz	macro
    73                           	bsf	3,2
    74                           	endm
    75  0000                     skipc	macro
    76                           	btfss	3,0
    77                           	endm
    78  0000                     skipz	macro
    79                           	btfss	3,2
    80                           	endm
    81  0000                     skipnc	macro
    82                           	btfsc	3,0
    83                           	endm
    84  0000                     skipnz	macro
    85                           	btfsc	3,2
    86                           	endm
    87  0000                     # 54 "C:\Program Files (x86)\Microchip\xc8\v2.00\pic\include\pic16f887.h"
    88                           INDF equ 00h ;# 
    89  0000                     # 61 "C:\Program Files (x86)\Microchip\xc8\v2.00\pic\include\pic16f887.h"
    90                           TMR0 equ 01h ;# 
    91  0001                     # 68 "C:\Program Files (x86)\Microchip\xc8\v2.00\pic\include\pic16f887.h"
    92                           PCL equ 02h ;# 
    93  0002                     # 75 "C:\Program Files (x86)\Microchip\xc8\v2.00\pic\include\pic16f887.h"
    94                           STATUS equ 03h ;# 
    95  0003                     # 161 "C:\Program Files (x86)\Microchip\xc8\v2.00\pic\include\pic16f887.h"
    96                           FSR equ 04h ;# 
    97  0004                     # 168 "C:\Program Files (x86)\Microchip\xc8\v2.00\pic\include\pic16f887.h"
    98                           PORTA equ 05h ;# 
    99  0005                     # 230 "C:\Program Files (x86)\Microchip\xc8\v2.00\pic\include\pic16f887.h"
   100                           PORTB equ 06h ;# 
   101  0006                     # 292 "C:\Program Files (x86)\Microchip\xc8\v2.00\pic\include\pic16f887.h"
   102                           PORTC equ 07h ;# 
   103  0007                     # 354 "C:\Program Files (x86)\Microchip\xc8\v2.00\pic\include\pic16f887.h"
   104                           PORTD equ 08h ;# 
   105  0008                     # 416 "C:\Program Files (x86)\Microchip\xc8\v2.00\pic\include\pic16f887.h"
   106                           PORTE equ 09h ;# 
   107  0009                     # 454 "C:\Program Files (x86)\Microchip\xc8\v2.00\pic\include\pic16f887.h"
   108                           PCLATH equ 0Ah ;# 
   109  000A                     # 461 "C:\Program Files (x86)\Microchip\xc8\v2.00\pic\include\pic16f887.h"
   110                           INTCON equ 0Bh ;# 
   111  000B                     # 539 "C:\Program Files (x86)\Microchip\xc8\v2.00\pic\include\pic16f887.h"
   112                           PIR1 equ 0Ch ;# 
   113  000C                     # 595 "C:\Program Files (x86)\Microchip\xc8\v2.00\pic\include\pic16f887.h"
   114                           PIR2 equ 0Dh ;# 
   115  000D                     # 652 "C:\Program Files (x86)\Microchip\xc8\v2.00\pic\include\pic16f887.h"
   116                           TMR1 equ 0Eh ;# 
   117  000E                     # 659 "C:\Program Files (x86)\Microchip\xc8\v2.00\pic\include\pic16f887.h"
   118                           TMR1L equ 0Eh ;# 
   119  000E                     # 666 "C:\Program Files (x86)\Microchip\xc8\v2.00\pic\include\pic16f887.h"
   120                           TMR1H equ 0Fh ;# 
   121  000F                     # 673 "C:\Program Files (x86)\Microchip\xc8\v2.00\pic\include\pic16f887.h"
   122                           T1CON equ 010h ;# 
   123  0010                     # 767 "C:\Program Files (x86)\Microchip\xc8\v2.00\pic\include\pic16f887.h"
   124                           TMR2 equ 011h ;# 
   125  0011                     # 774 "C:\Program Files (x86)\Microchip\xc8\v2.00\pic\include\pic16f887.h"
   126                           T2CON equ 012h ;# 
   127  0012                     # 845 "C:\Program Files (x86)\Microchip\xc8\v2.00\pic\include\pic16f887.h"
   128                           SSPBUF equ 013h ;# 
   129  0013                     # 852 "C:\Program Files (x86)\Microchip\xc8\v2.00\pic\include\pic16f887.h"
   130                           SSPCON equ 014h ;# 
   131  0014                     # 922 "C:\Program Files (x86)\Microchip\xc8\v2.00\pic\include\pic16f887.h"
   132                           CCPR1 equ 015h ;# 
   133  0015                     # 929 "C:\Program Files (x86)\Microchip\xc8\v2.00\pic\include\pic16f887.h"
   134                           CCPR1L equ 015h ;# 
   135  0015                     # 936 "C:\Program Files (x86)\Microchip\xc8\v2.00\pic\include\pic16f887.h"
   136                           CCPR1H equ 016h ;# 
   137  0016                     # 943 "C:\Program Files (x86)\Microchip\xc8\v2.00\pic\include\pic16f887.h"
   138                           CCP1CON equ 017h ;# 
   139  0017                     # 1040 "C:\Program Files (x86)\Microchip\xc8\v2.00\pic\include\pic16f887.h"
   140                           RCSTA equ 018h ;# 
   141  0018                     # 1135 "C:\Program Files (x86)\Microchip\xc8\v2.00\pic\include\pic16f887.h"
   142                           TXREG equ 019h ;# 
   143  0019                     # 1142 "C:\Program Files (x86)\Microchip\xc8\v2.00\pic\include\pic16f887.h"
   144                           RCREG equ 01Ah ;# 
   145  001A                     # 1149 "C:\Program Files (x86)\Microchip\xc8\v2.00\pic\include\pic16f887.h"
   146                           CCPR2 equ 01Bh ;# 
   147  001B                     # 1156 "C:\Program Files (x86)\Microchip\xc8\v2.00\pic\include\pic16f887.h"
   148                           CCPR2L equ 01Bh ;# 
   149  001B                     # 1163 "C:\Program Files (x86)\Microchip\xc8\v2.00\pic\include\pic16f887.h"
   150                           CCPR2H equ 01Ch ;# 
   151  001C                     # 1170 "C:\Program Files (x86)\Microchip\xc8\v2.00\pic\include\pic16f887.h"
   152                           CCP2CON equ 01Dh ;# 
   153  001D                     # 1240 "C:\Program Files (x86)\Microchip\xc8\v2.00\pic\include\pic16f887.h"
   154                           ADRESH equ 01Eh ;# 
   155  001E                     # 1247 "C:\Program Files (x86)\Microchip\xc8\v2.00\pic\include\pic16f887.h"
   156                           ADCON0 equ 01Fh ;# 
   157  001F                     # 1348 "C:\Program Files (x86)\Microchip\xc8\v2.00\pic\include\pic16f887.h"
   158                           OPTION_REG equ 081h ;# 
   159  0081                     # 1418 "C:\Program Files (x86)\Microchip\xc8\v2.00\pic\include\pic16f887.h"
   160                           TRISA equ 085h ;# 
   161  0085                     # 1480 "C:\Program Files (x86)\Microchip\xc8\v2.00\pic\include\pic16f887.h"
   162                           TRISB equ 086h ;# 
   163  0086                     # 1542 "C:\Program Files (x86)\Microchip\xc8\v2.00\pic\include\pic16f887.h"
   164                           TRISC equ 087h ;# 
   165  0087                     # 1604 "C:\Program Files (x86)\Microchip\xc8\v2.00\pic\include\pic16f887.h"
   166                           TRISD equ 088h ;# 
   167  0088                     # 1666 "C:\Program Files (x86)\Microchip\xc8\v2.00\pic\include\pic16f887.h"
   168                           TRISE equ 089h ;# 
   169  0089                     # 1704 "C:\Program Files (x86)\Microchip\xc8\v2.00\pic\include\pic16f887.h"
   170                           PIE1 equ 08Ch ;# 
   171  008C                     # 1760 "C:\Program Files (x86)\Microchip\xc8\v2.00\pic\include\pic16f887.h"
   172                           PIE2 equ 08Dh ;# 
   173  008D                     # 1817 "C:\Program Files (x86)\Microchip\xc8\v2.00\pic\include\pic16f887.h"
   174                           PCON equ 08Eh ;# 
   175  008E                     # 1864 "C:\Program Files (x86)\Microchip\xc8\v2.00\pic\include\pic16f887.h"
   176                           OSCCON equ 08Fh ;# 
   177  008F                     # 1929 "C:\Program Files (x86)\Microchip\xc8\v2.00\pic\include\pic16f887.h"
   178                           OSCTUNE equ 090h ;# 
   179  0090                     # 1981 "C:\Program Files (x86)\Microchip\xc8\v2.00\pic\include\pic16f887.h"
   180                           SSPCON2 equ 091h ;# 
   181  0091                     # 2043 "C:\Program Files (x86)\Microchip\xc8\v2.00\pic\include\pic16f887.h"
   182                           PR2 equ 092h ;# 
   183  0092                     # 2050 "C:\Program Files (x86)\Microchip\xc8\v2.00\pic\include\pic16f887.h"
   184                           SSPADD equ 093h ;# 
   185  0093                     # 2057 "C:\Program Files (x86)\Microchip\xc8\v2.00\pic\include\pic16f887.h"
   186                           SSPMSK equ 093h ;# 
   187  0093                     # 2062 "C:\Program Files (x86)\Microchip\xc8\v2.00\pic\include\pic16f887.h"
   188                           MSK equ 093h ;# 
   189  0093                     # 2179 "C:\Program Files (x86)\Microchip\xc8\v2.00\pic\include\pic16f887.h"
   190                           SSPSTAT equ 094h ;# 
   191  0094                     # 2348 "C:\Program Files (x86)\Microchip\xc8\v2.00\pic\include\pic16f887.h"
   192                           WPUB equ 095h ;# 
   193  0095                     # 2418 "C:\Program Files (x86)\Microchip\xc8\v2.00\pic\include\pic16f887.h"
   194                           IOCB equ 096h ;# 
   195  0096                     # 2488 "C:\Program Files (x86)\Microchip\xc8\v2.00\pic\include\pic16f887.h"
   196                           VRCON equ 097h ;# 
   197  0097                     # 2558 "C:\Program Files (x86)\Microchip\xc8\v2.00\pic\include\pic16f887.h"
   198                           TXSTA equ 098h ;# 
   199  0098                     # 2644 "C:\Program Files (x86)\Microchip\xc8\v2.00\pic\include\pic16f887.h"
   200                           SPBRG equ 099h ;# 
   201  0099                     # 2706 "C:\Program Files (x86)\Microchip\xc8\v2.00\pic\include\pic16f887.h"
   202                           SPBRGH equ 09Ah ;# 
   203  009A                     # 2776 "C:\Program Files (x86)\Microchip\xc8\v2.00\pic\include\pic16f887.h"
   204                           PWM1CON equ 09Bh ;# 
   205  009B                     # 2846 "C:\Program Files (x86)\Microchip\xc8\v2.00\pic\include\pic16f887.h"
   206                           ECCPAS equ 09Ch ;# 
   207  009C                     # 2928 "C:\Program Files (x86)\Microchip\xc8\v2.00\pic\include\pic16f887.h"
   208                           PSTRCON equ 09Dh ;# 
   209  009D                     # 2972 "C:\Program Files (x86)\Microchip\xc8\v2.00\pic\include\pic16f887.h"
   210                           ADRESL equ 09Eh ;# 
   211  009E                     # 2979 "C:\Program Files (x86)\Microchip\xc8\v2.00\pic\include\pic16f887.h"
   212                           ADCON1 equ 09Fh ;# 
   213  009F                     # 3013 "C:\Program Files (x86)\Microchip\xc8\v2.00\pic\include\pic16f887.h"
   214                           WDTCON equ 0105h ;# 
   215  0105                     # 3066 "C:\Program Files (x86)\Microchip\xc8\v2.00\pic\include\pic16f887.h"
   216                           CM1CON0 equ 0107h ;# 
   217  0107                     # 3131 "C:\Program Files (x86)\Microchip\xc8\v2.00\pic\include\pic16f887.h"
   218                           CM2CON0 equ 0108h ;# 
   219  0108                     # 3196 "C:\Program Files (x86)\Microchip\xc8\v2.00\pic\include\pic16f887.h"
   220                           CM2CON1 equ 0109h ;# 
   221  0109                     # 3247 "C:\Program Files (x86)\Microchip\xc8\v2.00\pic\include\pic16f887.h"
   222                           EEDATA equ 010Ch ;# 
   223  010C                     # 3252 "C:\Program Files (x86)\Microchip\xc8\v2.00\pic\include\pic16f887.h"
   224                           EEDAT equ 010Ch ;# 
   225  010C                     # 3259 "C:\Program Files (x86)\Microchip\xc8\v2.00\pic\include\pic16f887.h"
   226                           EEADR equ 010Dh ;# 
   227  010D                     # 3266 "C:\Program Files (x86)\Microchip\xc8\v2.00\pic\include\pic16f887.h"
   228                           EEDATH equ 010Eh ;# 
   229  010E                     # 3273 "C:\Program Files (x86)\Microchip\xc8\v2.00\pic\include\pic16f887.h"
   230                           EEADRH equ 010Fh ;# 
   231  010F                     # 3280 "C:\Program Files (x86)\Microchip\xc8\v2.00\pic\include\pic16f887.h"
   232                           SRCON equ 0185h ;# 
   233  0185                     # 3337 "C:\Program Files (x86)\Microchip\xc8\v2.00\pic\include\pic16f887.h"
   234                           BAUDCTL equ 0187h ;# 
   235  0187                     # 3389 "C:\Program Files (x86)\Microchip\xc8\v2.00\pic\include\pic16f887.h"
   236                           ANSEL equ 0188h ;# 
   237  0188                     # 3451 "C:\Program Files (x86)\Microchip\xc8\v2.00\pic\include\pic16f887.h"
   238                           ANSELH equ 0189h ;# 
   239  0189                     # 3501 "C:\Program Files (x86)\Microchip\xc8\v2.00\pic\include\pic16f887.h"
   240                           EECON1 equ 018Ch ;# 
   241  018C                     # 3546 "C:\Program Files (x86)\Microchip\xc8\v2.00\pic\include\pic16f887.h"
   242                           EECON2 equ 018Dh ;# 
   243  018D                     # 54 "C:\Program Files (x86)\Microchip\xc8\v2.00\pic\include\pic16f887.h"
   244                           INDF equ 00h ;# 
   245  0000                     # 61 "C:\Program Files (x86)\Microchip\xc8\v2.00\pic\include\pic16f887.h"
   246                           TMR0 equ 01h ;# 
   247  0001                     # 68 "C:\Program Files (x86)\Microchip\xc8\v2.00\pic\include\pic16f887.h"
   248                           PCL equ 02h ;# 
   249  0002                     # 75 "C:\Program Files (x86)\Microchip\xc8\v2.00\pic\include\pic16f887.h"
   250                           STATUS equ 03h ;# 
   251  0003                     # 161 "C:\Program Files (x86)\Microchip\xc8\v2.00\pic\include\pic16f887.h"
   252                           FSR equ 04h ;# 
   253  0004                     # 168 "C:\Program Files (x86)\Microchip\xc8\v2.00\pic\include\pic16f887.h"
   254                           PORTA equ 05h ;# 
   255  0005                     # 230 "C:\Program Files (x86)\Microchip\xc8\v2.00\pic\include\pic16f887.h"
   256                           PORTB equ 06h ;# 
   257  0006                     # 292 "C:\Program Files (x86)\Microchip\xc8\v2.00\pic\include\pic16f887.h"
   258                           PORTC equ 07h ;# 
   259  0007                     # 354 "C:\Program Files (x86)\Microchip\xc8\v2.00\pic\include\pic16f887.h"
   260                           PORTD equ 08h ;# 
   261  0008                     # 416 "C:\Program Files (x86)\Microchip\xc8\v2.00\pic\include\pic16f887.h"
   262                           PORTE equ 09h ;# 
   263  0009                     # 454 "C:\Program Files (x86)\Microchip\xc8\v2.00\pic\include\pic16f887.h"
   264                           PCLATH equ 0Ah ;# 
   265  000A                     # 461 "C:\Program Files (x86)\Microchip\xc8\v2.00\pic\include\pic16f887.h"
   266                           INTCON equ 0Bh ;# 
   267  000B                     # 539 "C:\Program Files (x86)\Microchip\xc8\v2.00\pic\include\pic16f887.h"
   268                           PIR1 equ 0Ch ;# 
   269  000C                     # 595 "C:\Program Files (x86)\Microchip\xc8\v2.00\pic\include\pic16f887.h"
   270                           PIR2 equ 0Dh ;# 
   271  000D                     # 652 "C:\Program Files (x86)\Microchip\xc8\v2.00\pic\include\pic16f887.h"
   272                           TMR1 equ 0Eh ;# 
   273  000E                     # 659 "C:\Program Files (x86)\Microchip\xc8\v2.00\pic\include\pic16f887.h"
   274                           TMR1L equ 0Eh ;# 
   275  000E                     # 666 "C:\Program Files (x86)\Microchip\xc8\v2.00\pic\include\pic16f887.h"
   276                           TMR1H equ 0Fh ;# 
   277  000F                     # 673 "C:\Program Files (x86)\Microchip\xc8\v2.00\pic\include\pic16f887.h"
   278                           T1CON equ 010h ;# 
   279  0010                     # 767 "C:\Program Files (x86)\Microchip\xc8\v2.00\pic\include\pic16f887.h"
   280                           TMR2 equ 011h ;# 
   281  0011                     # 774 "C:\Program Files (x86)\Microchip\xc8\v2.00\pic\include\pic16f887.h"
   282                           T2CON equ 012h ;# 
   283  0012                     # 845 "C:\Program Files (x86)\Microchip\xc8\v2.00\pic\include\pic16f887.h"
   284                           SSPBUF equ 013h ;# 
   285  0013                     # 852 "C:\Program Files (x86)\Microchip\xc8\v2.00\pic\include\pic16f887.h"
   286                           SSPCON equ 014h ;# 
   287  0014                     # 922 "C:\Program Files (x86)\Microchip\xc8\v2.00\pic\include\pic16f887.h"
   288                           CCPR1 equ 015h ;# 
   289  0015                     # 929 "C:\Program Files (x86)\Microchip\xc8\v2.00\pic\include\pic16f887.h"
   290                           CCPR1L equ 015h ;# 
   291  0015                     # 936 "C:\Program Files (x86)\Microchip\xc8\v2.00\pic\include\pic16f887.h"
   292                           CCPR1H equ 016h ;# 
   293  0016                     # 943 "C:\Program Files (x86)\Microchip\xc8\v2.00\pic\include\pic16f887.h"
   294                           CCP1CON equ 017h ;# 
   295  0017                     # 1040 "C:\Program Files (x86)\Microchip\xc8\v2.00\pic\include\pic16f887.h"
   296                           RCSTA equ 018h ;# 
   297  0018                     # 1135 "C:\Program Files (x86)\Microchip\xc8\v2.00\pic\include\pic16f887.h"
   298                           TXREG equ 019h ;# 
   299  0019                     # 1142 "C:\Program Files (x86)\Microchip\xc8\v2.00\pic\include\pic16f887.h"
   300                           RCREG equ 01Ah ;# 
   301  001A                     # 1149 "C:\Program Files (x86)\Microchip\xc8\v2.00\pic\include\pic16f887.h"
   302                           CCPR2 equ 01Bh ;# 
   303  001B                     # 1156 "C:\Program Files (x86)\Microchip\xc8\v2.00\pic\include\pic16f887.h"
   304                           CCPR2L equ 01Bh ;# 
   305  001B                     # 1163 "C:\Program Files (x86)\Microchip\xc8\v2.00\pic\include\pic16f887.h"
   306                           CCPR2H equ 01Ch ;# 
   307  001C                     # 1170 "C:\Program Files (x86)\Microchip\xc8\v2.00\pic\include\pic16f887.h"
   308                           CCP2CON equ 01Dh ;# 
   309  001D                     # 1240 "C:\Program Files (x86)\Microchip\xc8\v2.00\pic\include\pic16f887.h"
   310                           ADRESH equ 01Eh ;# 
   311  001E                     # 1247 "C:\Program Files (x86)\Microchip\xc8\v2.00\pic\include\pic16f887.h"
   312                           ADCON0 equ 01Fh ;# 
   313  001F                     # 1348 "C:\Program Files (x86)\Microchip\xc8\v2.00\pic\include\pic16f887.h"
   314                           OPTION_REG equ 081h ;# 
   315  0081                     # 1418 "C:\Program Files (x86)\Microchip\xc8\v2.00\pic\include\pic16f887.h"
   316                           TRISA equ 085h ;# 
   317  0085                     # 1480 "C:\Program Files (x86)\Microchip\xc8\v2.00\pic\include\pic16f887.h"
   318                           TRISB equ 086h ;# 
   319  0086                     # 1542 "C:\Program Files (x86)\Microchip\xc8\v2.00\pic\include\pic16f887.h"
   320                           TRISC equ 087h ;# 
   321  0087                     # 1604 "C:\Program Files (x86)\Microchip\xc8\v2.00\pic\include\pic16f887.h"
   322                           TRISD equ 088h ;# 
   323  0088                     # 1666 "C:\Program Files (x86)\Microchip\xc8\v2.00\pic\include\pic16f887.h"
   324                           TRISE equ 089h ;# 
   325  0089                     # 1704 "C:\Program Files (x86)\Microchip\xc8\v2.00\pic\include\pic16f887.h"
   326                           PIE1 equ 08Ch ;# 
   327  008C                     # 1760 "C:\Program Files (x86)\Microchip\xc8\v2.00\pic\include\pic16f887.h"
   328                           PIE2 equ 08Dh ;# 
   329  008D                     # 1817 "C:\Program Files (x86)\Microchip\xc8\v2.00\pic\include\pic16f887.h"
   330                           PCON equ 08Eh ;# 
   331  008E                     # 1864 "C:\Program Files (x86)\Microchip\xc8\v2.00\pic\include\pic16f887.h"
   332                           OSCCON equ 08Fh ;# 
   333  008F                     # 1929 "C:\Program Files (x86)\Microchip\xc8\v2.00\pic\include\pic16f887.h"
   334                           OSCTUNE equ 090h ;# 
   335  0090                     # 1981 "C:\Program Files (x86)\Microchip\xc8\v2.00\pic\include\pic16f887.h"
   336                           SSPCON2 equ 091h ;# 
   337  0091                     # 2043 "C:\Program Files (x86)\Microchip\xc8\v2.00\pic\include\pic16f887.h"
   338                           PR2 equ 092h ;# 
   339  0092                     # 2050 "C:\Program Files (x86)\Microchip\xc8\v2.00\pic\include\pic16f887.h"
   340                           SSPADD equ 093h ;# 
   341  0093                     # 2057 "C:\Program Files (x86)\Microchip\xc8\v2.00\pic\include\pic16f887.h"
   342                           SSPMSK equ 093h ;# 
   343  0093                     # 2062 "C:\Program Files (x86)\Microchip\xc8\v2.00\pic\include\pic16f887.h"
   344                           MSK equ 093h ;# 
   345  0093                     # 2179 "C:\Program Files (x86)\Microchip\xc8\v2.00\pic\include\pic16f887.h"
   346                           SSPSTAT equ 094h ;# 
   347  0094                     # 2348 "C:\Program Files (x86)\Microchip\xc8\v2.00\pic\include\pic16f887.h"
   348                           WPUB equ 095h ;# 
   349  0095                     # 2418 "C:\Program Files (x86)\Microchip\xc8\v2.00\pic\include\pic16f887.h"
   350                           IOCB equ 096h ;# 
   351  0096                     # 2488 "C:\Program Files (x86)\Microchip\xc8\v2.00\pic\include\pic16f887.h"
   352                           VRCON equ 097h ;# 
   353  0097                     # 2558 "C:\Program Files (x86)\Microchip\xc8\v2.00\pic\include\pic16f887.h"
   354                           TXSTA equ 098h ;# 
   355  0098                     # 2644 "C:\Program Files (x86)\Microchip\xc8\v2.00\pic\include\pic16f887.h"
   356                           SPBRG equ 099h ;# 
   357  0099                     # 2706 "C:\Program Files (x86)\Microchip\xc8\v2.00\pic\include\pic16f887.h"
   358                           SPBRGH equ 09Ah ;# 
   359  009A                     # 2776 "C:\Program Files (x86)\Microchip\xc8\v2.00\pic\include\pic16f887.h"
   360                           PWM1CON equ 09Bh ;# 
   361  009B                     # 2846 "C:\Program Files (x86)\Microchip\xc8\v2.00\pic\include\pic16f887.h"
   362                           ECCPAS equ 09Ch ;# 
   363  009C                     # 2928 "C:\Program Files (x86)\Microchip\xc8\v2.00\pic\include\pic16f887.h"
   364                           PSTRCON equ 09Dh ;# 
   365  009D                     # 2972 "C:\Program Files (x86)\Microchip\xc8\v2.00\pic\include\pic16f887.h"
   366                           ADRESL equ 09Eh ;# 
   367  009E                     # 2979 "C:\Program Files (x86)\Microchip\xc8\v2.00\pic\include\pic16f887.h"
   368                           ADCON1 equ 09Fh ;# 
   369  009F                     # 3013 "C:\Program Files (x86)\Microchip\xc8\v2.00\pic\include\pic16f887.h"
   370                           WDTCON equ 0105h ;# 
   371  0105                     # 3066 "C:\Program Files (x86)\Microchip\xc8\v2.00\pic\include\pic16f887.h"
   372                           CM1CON0 equ 0107h ;# 
   373  0107                     # 3131 "C:\Program Files (x86)\Microchip\xc8\v2.00\pic\include\pic16f887.h"
   374                           CM2CON0 equ 0108h ;# 
   375  0108                     # 3196 "C:\Program Files (x86)\Microchip\xc8\v2.00\pic\include\pic16f887.h"
   376                           CM2CON1 equ 0109h ;# 
   377  0109                     # 3247 "C:\Program Files (x86)\Microchip\xc8\v2.00\pic\include\pic16f887.h"
   378                           EEDATA equ 010Ch ;# 
   379  010C                     # 3252 "C:\Program Files (x86)\Microchip\xc8\v2.00\pic\include\pic16f887.h"
   380                           EEDAT equ 010Ch ;# 
   381  010C                     # 3259 "C:\Program Files (x86)\Microchip\xc8\v2.00\pic\include\pic16f887.h"
   382                           EEADR equ 010Dh ;# 
   383  010D                     # 3266 "C:\Program Files (x86)\Microchip\xc8\v2.00\pic\include\pic16f887.h"
   384                           EEDATH equ 010Eh ;# 
   385  010E                     # 3273 "C:\Program Files (x86)\Microchip\xc8\v2.00\pic\include\pic16f887.h"
   386                           EEADRH equ 010Fh ;# 
   387  010F                     # 3280 "C:\Program Files (x86)\Microchip\xc8\v2.00\pic\include\pic16f887.h"
   388                           SRCON equ 0185h ;# 
   389  0185                     # 3337 "C:\Program Files (x86)\Microchip\xc8\v2.00\pic\include\pic16f887.h"
   390                           BAUDCTL equ 0187h ;# 
   391  0187                     # 3389 "C:\Program Files (x86)\Microchip\xc8\v2.00\pic\include\pic16f887.h"
   392                           ANSEL equ 0188h ;# 
   393  0188                     # 3451 "C:\Program Files (x86)\Microchip\xc8\v2.00\pic\include\pic16f887.h"
   394                           ANSELH equ 0189h ;# 
   395  0189                     # 3501 "C:\Program Files (x86)\Microchip\xc8\v2.00\pic\include\pic16f887.h"
   396                           EECON1 equ 018Ch ;# 
   397  018C                     # 3546 "C:\Program Files (x86)\Microchip\xc8\v2.00\pic\include\pic16f887.h"
   398                           EECON2 equ 018Dh ;# 
   399  018D                     # 54 "C:\Program Files (x86)\Microchip\xc8\v2.00\pic\include\pic16f887.h"
   400                           INDF equ 00h ;# 
   401  0000                     # 61 "C:\Program Files (x86)\Microchip\xc8\v2.00\pic\include\pic16f887.h"
   402                           TMR0 equ 01h ;# 
   403  0001                     # 68 "C:\Program Files (x86)\Microchip\xc8\v2.00\pic\include\pic16f887.h"
   404                           PCL equ 02h ;# 
   405  0002                     # 75 "C:\Program Files (x86)\Microchip\xc8\v2.00\pic\include\pic16f887.h"
   406                           STATUS equ 03h ;# 
   407  0003                     # 161 "C:\Program Files (x86)\Microchip\xc8\v2.00\pic\include\pic16f887.h"
   408                           FSR equ 04h ;# 
   409  0004                     # 168 "C:\Program Files (x86)\Microchip\xc8\v2.00\pic\include\pic16f887.h"
   410                           PORTA equ 05h ;# 
   411  0005                     # 230 "C:\Program Files (x86)\Microchip\xc8\v2.00\pic\include\pic16f887.h"
   412                           PORTB equ 06h ;# 
   413  0006                     # 292 "C:\Program Files (x86)\Microchip\xc8\v2.00\pic\include\pic16f887.h"
   414                           PORTC equ 07h ;# 
   415  0007                     # 354 "C:\Program Files (x86)\Microchip\xc8\v2.00\pic\include\pic16f887.h"
   416                           PORTD equ 08h ;# 
   417  0008                     # 416 "C:\Program Files (x86)\Microchip\xc8\v2.00\pic\include\pic16f887.h"
   418                           PORTE equ 09h ;# 
   419  0009                     # 454 "C:\Program Files (x86)\Microchip\xc8\v2.00\pic\include\pic16f887.h"
   420                           PCLATH equ 0Ah ;# 
   421  000A                     # 461 "C:\Program Files (x86)\Microchip\xc8\v2.00\pic\include\pic16f887.h"
   422                           INTCON equ 0Bh ;# 
   423  000B                     # 539 "C:\Program Files (x86)\Microchip\xc8\v2.00\pic\include\pic16f887.h"
   424                           PIR1 equ 0Ch ;# 
   425  000C                     # 595 "C:\Program Files (x86)\Microchip\xc8\v2.00\pic\include\pic16f887.h"
   426                           PIR2 equ 0Dh ;# 
   427  000D                     # 652 "C:\Program Files (x86)\Microchip\xc8\v2.00\pic\include\pic16f887.h"
   428                           TMR1 equ 0Eh ;# 
   429  000E                     # 659 "C:\Program Files (x86)\Microchip\xc8\v2.00\pic\include\pic16f887.h"
   430                           TMR1L equ 0Eh ;# 
   431  000E                     # 666 "C:\Program Files (x86)\Microchip\xc8\v2.00\pic\include\pic16f887.h"
   432                           TMR1H equ 0Fh ;# 
   433  000F                     # 673 "C:\Program Files (x86)\Microchip\xc8\v2.00\pic\include\pic16f887.h"
   434                           T1CON equ 010h ;# 
   435  0010                     # 767 "C:\Program Files (x86)\Microchip\xc8\v2.00\pic\include\pic16f887.h"
   436                           TMR2 equ 011h ;# 
   437  0011                     # 774 "C:\Program Files (x86)\Microchip\xc8\v2.00\pic\include\pic16f887.h"
   438                           T2CON equ 012h ;# 
   439  0012                     # 845 "C:\Program Files (x86)\Microchip\xc8\v2.00\pic\include\pic16f887.h"
   440                           SSPBUF equ 013h ;# 
   441  0013                     # 852 "C:\Program Files (x86)\Microchip\xc8\v2.00\pic\include\pic16f887.h"
   442                           SSPCON equ 014h ;# 
   443  0014                     # 922 "C:\Program Files (x86)\Microchip\xc8\v2.00\pic\include\pic16f887.h"
   444                           CCPR1 equ 015h ;# 
   445  0015                     # 929 "C:\Program Files (x86)\Microchip\xc8\v2.00\pic\include\pic16f887.h"
   446                           CCPR1L equ 015h ;# 
   447  0015                     # 936 "C:\Program Files (x86)\Microchip\xc8\v2.00\pic\include\pic16f887.h"
   448                           CCPR1H equ 016h ;# 
   449  0016                     # 943 "C:\Program Files (x86)\Microchip\xc8\v2.00\pic\include\pic16f887.h"
   450                           CCP1CON equ 017h ;# 
   451  0017                     # 1040 "C:\Program Files (x86)\Microchip\xc8\v2.00\pic\include\pic16f887.h"
   452                           RCSTA equ 018h ;# 
   453  0018                     # 1135 "C:\Program Files (x86)\Microchip\xc8\v2.00\pic\include\pic16f887.h"
   454                           TXREG equ 019h ;# 
   455  0019                     # 1142 "C:\Program Files (x86)\Microchip\xc8\v2.00\pic\include\pic16f887.h"
   456                           RCREG equ 01Ah ;# 
   457  001A                     # 1149 "C:\Program Files (x86)\Microchip\xc8\v2.00\pic\include\pic16f887.h"
   458                           CCPR2 equ 01Bh ;# 
   459  001B                     # 1156 "C:\Program Files (x86)\Microchip\xc8\v2.00\pic\include\pic16f887.h"
   460                           CCPR2L equ 01Bh ;# 
   461  001B                     # 1163 "C:\Program Files (x86)\Microchip\xc8\v2.00\pic\include\pic16f887.h"
   462                           CCPR2H equ 01Ch ;# 
   463  001C                     # 1170 "C:\Program Files (x86)\Microchip\xc8\v2.00\pic\include\pic16f887.h"
   464                           CCP2CON equ 01Dh ;# 
   465  001D                     # 1240 "C:\Program Files (x86)\Microchip\xc8\v2.00\pic\include\pic16f887.h"
   466                           ADRESH equ 01Eh ;# 
   467  001E                     # 1247 "C:\Program Files (x86)\Microchip\xc8\v2.00\pic\include\pic16f887.h"
   468                           ADCON0 equ 01Fh ;# 
   469  001F                     # 1348 "C:\Program Files (x86)\Microchip\xc8\v2.00\pic\include\pic16f887.h"
   470                           OPTION_REG equ 081h ;# 
   471  0081                     # 1418 "C:\Program Files (x86)\Microchip\xc8\v2.00\pic\include\pic16f887.h"
   472                           TRISA equ 085h ;# 
   473  0085                     # 1480 "C:\Program Files (x86)\Microchip\xc8\v2.00\pic\include\pic16f887.h"
   474                           TRISB equ 086h ;# 
   475  0086                     # 1542 "C:\Program Files (x86)\Microchip\xc8\v2.00\pic\include\pic16f887.h"
   476                           TRISC equ 087h ;# 
   477  0087                     # 1604 "C:\Program Files (x86)\Microchip\xc8\v2.00\pic\include\pic16f887.h"
   478                           TRISD equ 088h ;# 
   479  0088                     # 1666 "C:\Program Files (x86)\Microchip\xc8\v2.00\pic\include\pic16f887.h"
   480                           TRISE equ 089h ;# 
   481  0089                     # 1704 "C:\Program Files (x86)\Microchip\xc8\v2.00\pic\include\pic16f887.h"
   482                           PIE1 equ 08Ch ;# 
   483  008C                     # 1760 "C:\Program Files (x86)\Microchip\xc8\v2.00\pic\include\pic16f887.h"
   484                           PIE2 equ 08Dh ;# 
   485  008D                     # 1817 "C:\Program Files (x86)\Microchip\xc8\v2.00\pic\include\pic16f887.h"
   486                           PCON equ 08Eh ;# 
   487  008E                     # 1864 "C:\Program Files (x86)\Microchip\xc8\v2.00\pic\include\pic16f887.h"
   488                           OSCCON equ 08Fh ;# 
   489  008F                     # 1929 "C:\Program Files (x86)\Microchip\xc8\v2.00\pic\include\pic16f887.h"
   490                           OSCTUNE equ 090h ;# 
   491  0090                     # 1981 "C:\Program Files (x86)\Microchip\xc8\v2.00\pic\include\pic16f887.h"
   492                           SSPCON2 equ 091h ;# 
   493  0091                     # 2043 "C:\Program Files (x86)\Microchip\xc8\v2.00\pic\include\pic16f887.h"
   494                           PR2 equ 092h ;# 
   495  0092                     # 2050 "C:\Program Files (x86)\Microchip\xc8\v2.00\pic\include\pic16f887.h"
   496                           SSPADD equ 093h ;# 
   497  0093                     # 2057 "C:\Program Files (x86)\Microchip\xc8\v2.00\pic\include\pic16f887.h"
   498                           SSPMSK equ 093h ;# 
   499  0093                     # 2062 "C:\Program Files (x86)\Microchip\xc8\v2.00\pic\include\pic16f887.h"
   500                           MSK equ 093h ;# 
   501  0093                     # 2179 "C:\Program Files (x86)\Microchip\xc8\v2.00\pic\include\pic16f887.h"
   502                           SSPSTAT equ 094h ;# 
   503  0094                     # 2348 "C:\Program Files (x86)\Microchip\xc8\v2.00\pic\include\pic16f887.h"
   504                           WPUB equ 095h ;# 
   505  0095                     # 2418 "C:\Program Files (x86)\Microchip\xc8\v2.00\pic\include\pic16f887.h"
   506                           IOCB equ 096h ;# 
   507  0096                     # 2488 "C:\Program Files (x86)\Microchip\xc8\v2.00\pic\include\pic16f887.h"
   508                           VRCON equ 097h ;# 
   509  0097                     # 2558 "C:\Program Files (x86)\Microchip\xc8\v2.00\pic\include\pic16f887.h"
   510                           TXSTA equ 098h ;# 
   511  0098                     # 2644 "C:\Program Files (x86)\Microchip\xc8\v2.00\pic\include\pic16f887.h"
   512                           SPBRG equ 099h ;# 
   513  0099                     # 2706 "C:\Program Files (x86)\Microchip\xc8\v2.00\pic\include\pic16f887.h"
   514                           SPBRGH equ 09Ah ;# 
   515  009A                     # 2776 "C:\Program Files (x86)\Microchip\xc8\v2.00\pic\include\pic16f887.h"
   516                           PWM1CON equ 09Bh ;# 
   517  009B                     # 2846 "C:\Program Files (x86)\Microchip\xc8\v2.00\pic\include\pic16f887.h"
   518                           ECCPAS equ 09Ch ;# 
   519  009C                     # 2928 "C:\Program Files (x86)\Microchip\xc8\v2.00\pic\include\pic16f887.h"
   520                           PSTRCON equ 09Dh ;# 
   521  009D                     # 2972 "C:\Program Files (x86)\Microchip\xc8\v2.00\pic\include\pic16f887.h"
   522                           ADRESL equ 09Eh ;# 
   523  009E                     # 2979 "C:\Program Files (x86)\Microchip\xc8\v2.00\pic\include\pic16f887.h"
   524                           ADCON1 equ 09Fh ;# 
   525  009F                     # 3013 "C:\Program Files (x86)\Microchip\xc8\v2.00\pic\include\pic16f887.h"
   526                           WDTCON equ 0105h ;# 
   527  0105                     # 3066 "C:\Program Files (x86)\Microchip\xc8\v2.00\pic\include\pic16f887.h"
   528                           CM1CON0 equ 0107h ;# 
   529  0107                     # 3131 "C:\Program Files (x86)\Microchip\xc8\v2.00\pic\include\pic16f887.h"
   530                           CM2CON0 equ 0108h ;# 
   531  0108                     # 3196 "C:\Program Files (x86)\Microchip\xc8\v2.00\pic\include\pic16f887.h"
   532                           CM2CON1 equ 0109h ;# 
   533  0109                     # 3247 "C:\Program Files (x86)\Microchip\xc8\v2.00\pic\include\pic16f887.h"
   534                           EEDATA equ 010Ch ;# 
   535  010C                     # 3252 "C:\Program Files (x86)\Microchip\xc8\v2.00\pic\include\pic16f887.h"
   536                           EEDAT equ 010Ch ;# 
   537  010C                     # 3259 "C:\Program Files (x86)\Microchip\xc8\v2.00\pic\include\pic16f887.h"
   538                           EEADR equ 010Dh ;# 
   539  010D                     # 3266 "C:\Program Files (x86)\Microchip\xc8\v2.00\pic\include\pic16f887.h"
   540                           EEDATH equ 010Eh ;# 
   541  010E                     # 3273 "C:\Program Files (x86)\Microchip\xc8\v2.00\pic\include\pic16f887.h"
   542                           EEADRH equ 010Fh ;# 
   543  010F                     # 3280 "C:\Program Files (x86)\Microchip\xc8\v2.00\pic\include\pic16f887.h"
   544                           SRCON equ 0185h ;# 
   545  0185                     # 3337 "C:\Program Files (x86)\Microchip\xc8\v2.00\pic\include\pic16f887.h"
   546                           BAUDCTL equ 0187h ;# 
   547  0187                     # 3389 "C:\Program Files (x86)\Microchip\xc8\v2.00\pic\include\pic16f887.h"
   548                           ANSEL equ 0188h ;# 
   549  0188                     # 3451 "C:\Program Files (x86)\Microchip\xc8\v2.00\pic\include\pic16f887.h"
   550                           ANSELH equ 0189h ;# 
   551  0189                     # 3501 "C:\Program Files (x86)\Microchip\xc8\v2.00\pic\include\pic16f887.h"
   552                           EECON1 equ 018Ch ;# 
   553  018C                     # 3546 "C:\Program Files (x86)\Microchip\xc8\v2.00\pic\include\pic16f887.h"
   554                           EECON2 equ 018Dh ;# 
   555  018D                     # 54 "C:\Program Files (x86)\Microchip\xc8\v2.00\pic\include\pic16f887.h"
   556                           INDF equ 00h ;# 
   557  0000                     # 61 "C:\Program Files (x86)\Microchip\xc8\v2.00\pic\include\pic16f887.h"
   558                           TMR0 equ 01h ;# 
   559  0001                     # 68 "C:\Program Files (x86)\Microchip\xc8\v2.00\pic\include\pic16f887.h"
   560                           PCL equ 02h ;# 
   561  0002                     # 75 "C:\Program Files (x86)\Microchip\xc8\v2.00\pic\include\pic16f887.h"
   562                           STATUS equ 03h ;# 
   563  0003                     # 161 "C:\Program Files (x86)\Microchip\xc8\v2.00\pic\include\pic16f887.h"
   564                           FSR equ 04h ;# 
   565  0004                     # 168 "C:\Program Files (x86)\Microchip\xc8\v2.00\pic\include\pic16f887.h"
   566                           PORTA equ 05h ;# 
   567  0005                     # 230 "C:\Program Files (x86)\Microchip\xc8\v2.00\pic\include\pic16f887.h"
   568                           PORTB equ 06h ;# 
   569  0006                     # 292 "C:\Program Files (x86)\Microchip\xc8\v2.00\pic\include\pic16f887.h"
   570                           PORTC equ 07h ;# 
   571  0007                     # 354 "C:\Program Files (x86)\Microchip\xc8\v2.00\pic\include\pic16f887.h"
   572                           PORTD equ 08h ;# 
   573  0008                     # 416 "C:\Program Files (x86)\Microchip\xc8\v2.00\pic\include\pic16f887.h"
   574                           PORTE equ 09h ;# 
   575  0009                     # 454 "C:\Program Files (x86)\Microchip\xc8\v2.00\pic\include\pic16f887.h"
   576                           PCLATH equ 0Ah ;# 
   577  000A                     # 461 "C:\Program Files (x86)\Microchip\xc8\v2.00\pic\include\pic16f887.h"
   578                           INTCON equ 0Bh ;# 
   579  000B                     # 539 "C:\Program Files (x86)\Microchip\xc8\v2.00\pic\include\pic16f887.h"
   580                           PIR1 equ 0Ch ;# 
   581  000C                     # 595 "C:\Program Files (x86)\Microchip\xc8\v2.00\pic\include\pic16f887.h"
   582                           PIR2 equ 0Dh ;# 
   583  000D                     # 652 "C:\Program Files (x86)\Microchip\xc8\v2.00\pic\include\pic16f887.h"
   584                           TMR1 equ 0Eh ;# 
   585  000E                     # 659 "C:\Program Files (x86)\Microchip\xc8\v2.00\pic\include\pic16f887.h"
   586                           TMR1L equ 0Eh ;# 
   587  000E                     # 666 "C:\Program Files (x86)\Microchip\xc8\v2.00\pic\include\pic16f887.h"
   588                           TMR1H equ 0Fh ;# 
   589  000F                     # 673 "C:\Program Files (x86)\Microchip\xc8\v2.00\pic\include\pic16f887.h"
   590                           T1CON equ 010h ;# 
   591  0010                     # 767 "C:\Program Files (x86)\Microchip\xc8\v2.00\pic\include\pic16f887.h"
   592                           TMR2 equ 011h ;# 
   593  0011                     # 774 "C:\Program Files (x86)\Microchip\xc8\v2.00\pic\include\pic16f887.h"
   594                           T2CON equ 012h ;# 
   595  0012                     # 845 "C:\Program Files (x86)\Microchip\xc8\v2.00\pic\include\pic16f887.h"
   596                           SSPBUF equ 013h ;# 
   597  0013                     # 852 "C:\Program Files (x86)\Microchip\xc8\v2.00\pic\include\pic16f887.h"
   598                           SSPCON equ 014h ;# 
   599  0014                     # 922 "C:\Program Files (x86)\Microchip\xc8\v2.00\pic\include\pic16f887.h"
   600                           CCPR1 equ 015h ;# 
   601  0015                     # 929 "C:\Program Files (x86)\Microchip\xc8\v2.00\pic\include\pic16f887.h"
   602                           CCPR1L equ 015h ;# 
   603  0015                     # 936 "C:\Program Files (x86)\Microchip\xc8\v2.00\pic\include\pic16f887.h"
   604                           CCPR1H equ 016h ;# 
   605  0016                     # 943 "C:\Program Files (x86)\Microchip\xc8\v2.00\pic\include\pic16f887.h"
   606                           CCP1CON equ 017h ;# 
   607  0017                     # 1040 "C:\Program Files (x86)\Microchip\xc8\v2.00\pic\include\pic16f887.h"
   608                           RCSTA equ 018h ;# 
   609  0018                     # 1135 "C:\Program Files (x86)\Microchip\xc8\v2.00\pic\include\pic16f887.h"
   610                           TXREG equ 019h ;# 
   611  0019                     # 1142 "C:\Program Files (x86)\Microchip\xc8\v2.00\pic\include\pic16f887.h"
   612                           RCREG equ 01Ah ;# 
   613  001A                     # 1149 "C:\Program Files (x86)\Microchip\xc8\v2.00\pic\include\pic16f887.h"
   614                           CCPR2 equ 01Bh ;# 
   615  001B                     # 1156 "C:\Program Files (x86)\Microchip\xc8\v2.00\pic\include\pic16f887.h"
   616                           CCPR2L equ 01Bh ;# 
   617  001B                     # 1163 "C:\Program Files (x86)\Microchip\xc8\v2.00\pic\include\pic16f887.h"
   618                           CCPR2H equ 01Ch ;# 
   619  001C                     # 1170 "C:\Program Files (x86)\Microchip\xc8\v2.00\pic\include\pic16f887.h"
   620                           CCP2CON equ 01Dh ;# 
   621  001D                     # 1240 "C:\Program Files (x86)\Microchip\xc8\v2.00\pic\include\pic16f887.h"
   622                           ADRESH equ 01Eh ;# 
   623  001E                     # 1247 "C:\Program Files (x86)\Microchip\xc8\v2.00\pic\include\pic16f887.h"
   624                           ADCON0 equ 01Fh ;# 
   625  001F                     # 1348 "C:\Program Files (x86)\Microchip\xc8\v2.00\pic\include\pic16f887.h"
   626                           OPTION_REG equ 081h ;# 
   627  0081                     # 1418 "C:\Program Files (x86)\Microchip\xc8\v2.00\pic\include\pic16f887.h"
   628                           TRISA equ 085h ;# 
   629  0085                     # 1480 "C:\Program Files (x86)\Microchip\xc8\v2.00\pic\include\pic16f887.h"
   630                           TRISB equ 086h ;# 
   631  0086                     # 1542 "C:\Program Files (x86)\Microchip\xc8\v2.00\pic\include\pic16f887.h"
   632                           TRISC equ 087h ;# 
   633  0087                     # 1604 "C:\Program Files (x86)\Microchip\xc8\v2.00\pic\include\pic16f887.h"
   634                           TRISD equ 088h ;# 
   635  0088                     # 1666 "C:\Program Files (x86)\Microchip\xc8\v2.00\pic\include\pic16f887.h"
   636                           TRISE equ 089h ;# 
   637  0089                     # 1704 "C:\Program Files (x86)\Microchip\xc8\v2.00\pic\include\pic16f887.h"
   638                           PIE1 equ 08Ch ;# 
   639  008C                     # 1760 "C:\Program Files (x86)\Microchip\xc8\v2.00\pic\include\pic16f887.h"
   640                           PIE2 equ 08Dh ;# 
   641  008D                     # 1817 "C:\Program Files (x86)\Microchip\xc8\v2.00\pic\include\pic16f887.h"
   642                           PCON equ 08Eh ;# 
   643  008E                     # 1864 "C:\Program Files (x86)\Microchip\xc8\v2.00\pic\include\pic16f887.h"
   644                           OSCCON equ 08Fh ;# 
   645  008F                     # 1929 "C:\Program Files (x86)\Microchip\xc8\v2.00\pic\include\pic16f887.h"
   646                           OSCTUNE equ 090h ;# 
   647  0090                     # 1981 "C:\Program Files (x86)\Microchip\xc8\v2.00\pic\include\pic16f887.h"
   648                           SSPCON2 equ 091h ;# 
   649  0091                     # 2043 "C:\Program Files (x86)\Microchip\xc8\v2.00\pic\include\pic16f887.h"
   650                           PR2 equ 092h ;# 
   651  0092                     # 2050 "C:\Program Files (x86)\Microchip\xc8\v2.00\pic\include\pic16f887.h"
   652                           SSPADD equ 093h ;# 
   653  0093                     # 2057 "C:\Program Files (x86)\Microchip\xc8\v2.00\pic\include\pic16f887.h"
   654                           SSPMSK equ 093h ;# 
   655  0093                     # 2062 "C:\Program Files (x86)\Microchip\xc8\v2.00\pic\include\pic16f887.h"
   656                           MSK equ 093h ;# 
   657  0093                     # 2179 "C:\Program Files (x86)\Microchip\xc8\v2.00\pic\include\pic16f887.h"
   658                           SSPSTAT equ 094h ;# 
   659  0094                     # 2348 "C:\Program Files (x86)\Microchip\xc8\v2.00\pic\include\pic16f887.h"
   660                           WPUB equ 095h ;# 
   661  0095                     # 2418 "C:\Program Files (x86)\Microchip\xc8\v2.00\pic\include\pic16f887.h"
   662                           IOCB equ 096h ;# 
   663  0096                     # 2488 "C:\Program Files (x86)\Microchip\xc8\v2.00\pic\include\pic16f887.h"
   664                           VRCON equ 097h ;# 
   665  0097                     # 2558 "C:\Program Files (x86)\Microchip\xc8\v2.00\pic\include\pic16f887.h"
   666                           TXSTA equ 098h ;# 
   667  0098                     # 2644 "C:\Program Files (x86)\Microchip\xc8\v2.00\pic\include\pic16f887.h"
   668                           SPBRG equ 099h ;# 
   669  0099                     # 2706 "C:\Program Files (x86)\Microchip\xc8\v2.00\pic\include\pic16f887.h"
   670                           SPBRGH equ 09Ah ;# 
   671  009A                     # 2776 "C:\Program Files (x86)\Microchip\xc8\v2.00\pic\include\pic16f887.h"
   672                           PWM1CON equ 09Bh ;# 
   673  009B                     # 2846 "C:\Program Files (x86)\Microchip\xc8\v2.00\pic\include\pic16f887.h"
   674                           ECCPAS equ 09Ch ;# 
   675  009C                     # 2928 "C:\Program Files (x86)\Microchip\xc8\v2.00\pic\include\pic16f887.h"
   676                           PSTRCON equ 09Dh ;# 
   677  009D                     # 2972 "C:\Program Files (x86)\Microchip\xc8\v2.00\pic\include\pic16f887.h"
   678                           ADRESL equ 09Eh ;# 
   679  009E                     # 2979 "C:\Program Files (x86)\Microchip\xc8\v2.00\pic\include\pic16f887.h"
   680                           ADCON1 equ 09Fh ;# 
   681  009F                     # 3013 "C:\Program Files (x86)\Microchip\xc8\v2.00\pic\include\pic16f887.h"
   682                           WDTCON equ 0105h ;# 
   683  0105                     # 3066 "C:\Program Files (x86)\Microchip\xc8\v2.00\pic\include\pic16f887.h"
   684                           CM1CON0 equ 0107h ;# 
   685  0107                     # 3131 "C:\Program Files (x86)\Microchip\xc8\v2.00\pic\include\pic16f887.h"
   686                           CM2CON0 equ 0108h ;# 
   687  0108                     # 3196 "C:\Program Files (x86)\Microchip\xc8\v2.00\pic\include\pic16f887.h"
   688                           CM2CON1 equ 0109h ;# 
   689  0109                     # 3247 "C:\Program Files (x86)\Microchip\xc8\v2.00\pic\include\pic16f887.h"
   690                           EEDATA equ 010Ch ;# 
   691  010C                     # 3252 "C:\Program Files (x86)\Microchip\xc8\v2.00\pic\include\pic16f887.h"
   692                           EEDAT equ 010Ch ;# 
   693  010C                     # 3259 "C:\Program Files (x86)\Microchip\xc8\v2.00\pic\include\pic16f887.h"
   694                           EEADR equ 010Dh ;# 
   695  010D                     # 3266 "C:\Program Files (x86)\Microchip\xc8\v2.00\pic\include\pic16f887.h"
   696                           EEDATH equ 010Eh ;# 
   697  010E                     # 3273 "C:\Program Files (x86)\Microchip\xc8\v2.00\pic\include\pic16f887.h"
   698                           EEADRH equ 010Fh ;# 
   699  010F                     # 3280 "C:\Program Files (x86)\Microchip\xc8\v2.00\pic\include\pic16f887.h"
   700                           SRCON equ 0185h ;# 
   701  0185                     # 3337 "C:\Program Files (x86)\Microchip\xc8\v2.00\pic\include\pic16f887.h"
   702                           BAUDCTL equ 0187h ;# 
   703  0187                     # 3389 "C:\Program Files (x86)\Microchip\xc8\v2.00\pic\include\pic16f887.h"
   704                           ANSEL equ 0188h ;# 
   705  0188                     # 3451 "C:\Program Files (x86)\Microchip\xc8\v2.00\pic\include\pic16f887.h"
   706                           ANSELH equ 0189h ;# 
   707  0189                     # 3501 "C:\Program Files (x86)\Microchip\xc8\v2.00\pic\include\pic16f887.h"
   708                           EECON1 equ 018Ch ;# 
   709  018C                     # 3546 "C:\Program Files (x86)\Microchip\xc8\v2.00\pic\include\pic16f887.h"
   710                           EECON2 equ 018Dh ;# 
   711  018D                     # 54 "C:\Program Files (x86)\Microchip\xc8\v2.00\pic\include\pic16f887.h"
   712                           INDF equ 00h ;# 
   713  0000                     # 61 "C:\Program Files (x86)\Microchip\xc8\v2.00\pic\include\pic16f887.h"
   714                           TMR0 equ 01h ;# 
   715  0001                     # 68 "C:\Program Files (x86)\Microchip\xc8\v2.00\pic\include\pic16f887.h"
   716                           PCL equ 02h ;# 
   717  0002                     # 75 "C:\Program Files (x86)\Microchip\xc8\v2.00\pic\include\pic16f887.h"
   718                           STATUS equ 03h ;# 
   719  0003                     # 161 "C:\Program Files (x86)\Microchip\xc8\v2.00\pic\include\pic16f887.h"
   720                           FSR equ 04h ;# 
   721  0004                     # 168 "C:\Program Files (x86)\Microchip\xc8\v2.00\pic\include\pic16f887.h"
   722                           PORTA equ 05h ;# 
   723  0005                     # 230 "C:\Program Files (x86)\Microchip\xc8\v2.00\pic\include\pic16f887.h"
   724                           PORTB equ 06h ;# 
   725  0006                     # 292 "C:\Program Files (x86)\Microchip\xc8\v2.00\pic\include\pic16f887.h"
   726                           PORTC equ 07h ;# 
   727  0007                     # 354 "C:\Program Files (x86)\Microchip\xc8\v2.00\pic\include\pic16f887.h"
   728                           PORTD equ 08h ;# 
   729  0008                     # 416 "C:\Program Files (x86)\Microchip\xc8\v2.00\pic\include\pic16f887.h"
   730                           PORTE equ 09h ;# 
   731  0009                     # 454 "C:\Program Files (x86)\Microchip\xc8\v2.00\pic\include\pic16f887.h"
   732                           PCLATH equ 0Ah ;# 
   733  000A                     # 461 "C:\Program Files (x86)\Microchip\xc8\v2.00\pic\include\pic16f887.h"
   734                           INTCON equ 0Bh ;# 
   735  000B                     # 539 "C:\Program Files (x86)\Microchip\xc8\v2.00\pic\include\pic16f887.h"
   736                           PIR1 equ 0Ch ;# 
   737  000C                     # 595 "C:\Program Files (x86)\Microchip\xc8\v2.00\pic\include\pic16f887.h"
   738                           PIR2 equ 0Dh ;# 
   739  000D                     # 652 "C:\Program Files (x86)\Microchip\xc8\v2.00\pic\include\pic16f887.h"
   740                           TMR1 equ 0Eh ;# 
   741  000E                     # 659 "C:\Program Files (x86)\Microchip\xc8\v2.00\pic\include\pic16f887.h"
   742                           TMR1L equ 0Eh ;# 
   743  000E                     # 666 "C:\Program Files (x86)\Microchip\xc8\v2.00\pic\include\pic16f887.h"
   744                           TMR1H equ 0Fh ;# 
   745  000F                     # 673 "C:\Program Files (x86)\Microchip\xc8\v2.00\pic\include\pic16f887.h"
   746                           T1CON equ 010h ;# 
   747  0010                     # 767 "C:\Program Files (x86)\Microchip\xc8\v2.00\pic\include\pic16f887.h"
   748                           TMR2 equ 011h ;# 
   749  0011                     # 774 "C:\Program Files (x86)\Microchip\xc8\v2.00\pic\include\pic16f887.h"
   750                           T2CON equ 012h ;# 
   751  0012                     # 845 "C:\Program Files (x86)\Microchip\xc8\v2.00\pic\include\pic16f887.h"
   752                           SSPBUF equ 013h ;# 
   753  0013                     # 852 "C:\Program Files (x86)\Microchip\xc8\v2.00\pic\include\pic16f887.h"
   754                           SSPCON equ 014h ;# 
   755  0014                     # 922 "C:\Program Files (x86)\Microchip\xc8\v2.00\pic\include\pic16f887.h"
   756                           CCPR1 equ 015h ;# 
   757  0015                     # 929 "C:\Program Files (x86)\Microchip\xc8\v2.00\pic\include\pic16f887.h"
   758                           CCPR1L equ 015h ;# 
   759  0015                     # 936 "C:\Program Files (x86)\Microchip\xc8\v2.00\pic\include\pic16f887.h"
   760                           CCPR1H equ 016h ;# 
   761  0016                     # 943 "C:\Program Files (x86)\Microchip\xc8\v2.00\pic\include\pic16f887.h"
   762                           CCP1CON equ 017h ;# 
   763  0017                     # 1040 "C:\Program Files (x86)\Microchip\xc8\v2.00\pic\include\pic16f887.h"
   764                           RCSTA equ 018h ;# 
   765  0018                     # 1135 "C:\Program Files (x86)\Microchip\xc8\v2.00\pic\include\pic16f887.h"
   766                           TXREG equ 019h ;# 
   767  0019                     # 1142 "C:\Program Files (x86)\Microchip\xc8\v2.00\pic\include\pic16f887.h"
   768                           RCREG equ 01Ah ;# 
   769  001A                     # 1149 "C:\Program Files (x86)\Microchip\xc8\v2.00\pic\include\pic16f887.h"
   770                           CCPR2 equ 01Bh ;# 
   771  001B                     # 1156 "C:\Program Files (x86)\Microchip\xc8\v2.00\pic\include\pic16f887.h"
   772                           CCPR2L equ 01Bh ;# 
   773  001B                     # 1163 "C:\Program Files (x86)\Microchip\xc8\v2.00\pic\include\pic16f887.h"
   774                           CCPR2H equ 01Ch ;# 
   775  001C                     # 1170 "C:\Program Files (x86)\Microchip\xc8\v2.00\pic\include\pic16f887.h"
   776                           CCP2CON equ 01Dh ;# 
   777  001D                     # 1240 "C:\Program Files (x86)\Microchip\xc8\v2.00\pic\include\pic16f887.h"
   778                           ADRESH equ 01Eh ;# 
   779  001E                     # 1247 "C:\Program Files (x86)\Microchip\xc8\v2.00\pic\include\pic16f887.h"
   780                           ADCON0 equ 01Fh ;# 
   781  001F                     # 1348 "C:\Program Files (x86)\Microchip\xc8\v2.00\pic\include\pic16f887.h"
   782                           OPTION_REG equ 081h ;# 
   783  0081                     # 1418 "C:\Program Files (x86)\Microchip\xc8\v2.00\pic\include\pic16f887.h"
   784                           TRISA equ 085h ;# 
   785  0085                     # 1480 "C:\Program Files (x86)\Microchip\xc8\v2.00\pic\include\pic16f887.h"
   786                           TRISB equ 086h ;# 
   787  0086                     # 1542 "C:\Program Files (x86)\Microchip\xc8\v2.00\pic\include\pic16f887.h"
   788                           TRISC equ 087h ;# 
   789  0087                     # 1604 "C:\Program Files (x86)\Microchip\xc8\v2.00\pic\include\pic16f887.h"
   790                           TRISD equ 088h ;# 
   791  0088                     # 1666 "C:\Program Files (x86)\Microchip\xc8\v2.00\pic\include\pic16f887.h"
   792                           TRISE equ 089h ;# 
   793  0089                     # 1704 "C:\Program Files (x86)\Microchip\xc8\v2.00\pic\include\pic16f887.h"
   794                           PIE1 equ 08Ch ;# 
   795  008C                     # 1760 "C:\Program Files (x86)\Microchip\xc8\v2.00\pic\include\pic16f887.h"
   796                           PIE2 equ 08Dh ;# 
   797  008D                     # 1817 "C:\Program Files (x86)\Microchip\xc8\v2.00\pic\include\pic16f887.h"
   798                           PCON equ 08Eh ;# 
   799  008E                     # 1864 "C:\Program Files (x86)\Microchip\xc8\v2.00\pic\include\pic16f887.h"
   800                           OSCCON equ 08Fh ;# 
   801  008F                     # 1929 "C:\Program Files (x86)\Microchip\xc8\v2.00\pic\include\pic16f887.h"
   802                           OSCTUNE equ 090h ;# 
   803  0090                     # 1981 "C:\Program Files (x86)\Microchip\xc8\v2.00\pic\include\pic16f887.h"
   804                           SSPCON2 equ 091h ;# 
   805  0091                     # 2043 "C:\Program Files (x86)\Microchip\xc8\v2.00\pic\include\pic16f887.h"
   806                           PR2 equ 092h ;# 
   807  0092                     # 2050 "C:\Program Files (x86)\Microchip\xc8\v2.00\pic\include\pic16f887.h"
   808                           SSPADD equ 093h ;# 
   809  0093                     # 2057 "C:\Program Files (x86)\Microchip\xc8\v2.00\pic\include\pic16f887.h"
   810                           SSPMSK equ 093h ;# 
   811  0093                     # 2062 "C:\Program Files (x86)\Microchip\xc8\v2.00\pic\include\pic16f887.h"
   812                           MSK equ 093h ;# 
   813  0093                     # 2179 "C:\Program Files (x86)\Microchip\xc8\v2.00\pic\include\pic16f887.h"
   814                           SSPSTAT equ 094h ;# 
   815  0094                     # 2348 "C:\Program Files (x86)\Microchip\xc8\v2.00\pic\include\pic16f887.h"
   816                           WPUB equ 095h ;# 
   817  0095                     # 2418 "C:\Program Files (x86)\Microchip\xc8\v2.00\pic\include\pic16f887.h"
   818                           IOCB equ 096h ;# 
   819  0096                     # 2488 "C:\Program Files (x86)\Microchip\xc8\v2.00\pic\include\pic16f887.h"
   820                           VRCON equ 097h ;# 
   821  0097                     # 2558 "C:\Program Files (x86)\Microchip\xc8\v2.00\pic\include\pic16f887.h"
   822                           TXSTA equ 098h ;# 
   823  0098                     # 2644 "C:\Program Files (x86)\Microchip\xc8\v2.00\pic\include\pic16f887.h"
   824                           SPBRG equ 099h ;# 
   825  0099                     # 2706 "C:\Program Files (x86)\Microchip\xc8\v2.00\pic\include\pic16f887.h"
   826                           SPBRGH equ 09Ah ;# 
   827  009A                     # 2776 "C:\Program Files (x86)\Microchip\xc8\v2.00\pic\include\pic16f887.h"
   828                           PWM1CON equ 09Bh ;# 
   829  009B                     # 2846 "C:\Program Files (x86)\Microchip\xc8\v2.00\pic\include\pic16f887.h"
   830                           ECCPAS equ 09Ch ;# 
   831  009C                     # 2928 "C:\Program Files (x86)\Microchip\xc8\v2.00\pic\include\pic16f887.h"
   832                           PSTRCON equ 09Dh ;# 
   833  009D                     # 2972 "C:\Program Files (x86)\Microchip\xc8\v2.00\pic\include\pic16f887.h"
   834                           ADRESL equ 09Eh ;# 
   835  009E                     # 2979 "C:\Program Files (x86)\Microchip\xc8\v2.00\pic\include\pic16f887.h"
   836                           ADCON1 equ 09Fh ;# 
   837  009F                     # 3013 "C:\Program Files (x86)\Microchip\xc8\v2.00\pic\include\pic16f887.h"
   838                           WDTCON equ 0105h ;# 
   839  0105                     # 3066 "C:\Program Files (x86)\Microchip\xc8\v2.00\pic\include\pic16f887.h"
   840                           CM1CON0 equ 0107h ;# 
   841  0107                     # 3131 "C:\Program Files (x86)\Microchip\xc8\v2.00\pic\include\pic16f887.h"
   842                           CM2CON0 equ 0108h ;# 
   843  0108                     # 3196 "C:\Program Files (x86)\Microchip\xc8\v2.00\pic\include\pic16f887.h"
   844                           CM2CON1 equ 0109h ;# 
   845  0109                     # 3247 "C:\Program Files (x86)\Microchip\xc8\v2.00\pic\include\pic16f887.h"
   846                           EEDATA equ 010Ch ;# 
   847  010C                     # 3252 "C:\Program Files (x86)\Microchip\xc8\v2.00\pic\include\pic16f887.h"
   848                           EEDAT equ 010Ch ;# 
   849  010C                     # 3259 "C:\Program Files (x86)\Microchip\xc8\v2.00\pic\include\pic16f887.h"
   850                           EEADR equ 010Dh ;# 
   851  010D                     # 3266 "C:\Program Files (x86)\Microchip\xc8\v2.00\pic\include\pic16f887.h"
   852                           EEDATH equ 010Eh ;# 
   853  010E                     # 3273 "C:\Program Files (x86)\Microchip\xc8\v2.00\pic\include\pic16f887.h"
   854                           EEADRH equ 010Fh ;# 
   855  010F                     # 3280 "C:\Program Files (x86)\Microchip\xc8\v2.00\pic\include\pic16f887.h"
   856                           SRCON equ 0185h ;# 
   857  0185                     # 3337 "C:\Program Files (x86)\Microchip\xc8\v2.00\pic\include\pic16f887.h"
   858                           BAUDCTL equ 0187h ;# 
   859  0187                     # 3389 "C:\Program Files (x86)\Microchip\xc8\v2.00\pic\include\pic16f887.h"
   860                           ANSEL equ 0188h ;# 
   861  0188                     # 3451 "C:\Program Files (x86)\Microchip\xc8\v2.00\pic\include\pic16f887.h"
   862                           ANSELH equ 0189h ;# 
   863  0189                     # 3501 "C:\Program Files (x86)\Microchip\xc8\v2.00\pic\include\pic16f887.h"
   864                           EECON1 equ 018Ch ;# 
   865  018C                     # 3546 "C:\Program Files (x86)\Microchip\xc8\v2.00\pic\include\pic16f887.h"
   866                           EECON2 equ 018Dh ;# 
   867  018D                     	FNCALL	_main,_delay
   868                           	FNCALL	_main,_dispLCD
   869                           	FNCALL	_main,_dispLCD_init
   870                           	FNCALL	_main,_teclado
   871                           	FNCALL	_main,_teclado_init
   872                           	FNCALL	_dispLCD_init,_dispLCD_instReg
   873                           	FNCALL	_dispLCD,_dispLCD_dataReg
   874                           	FNCALL	_dispLCD,_dispLCD_lincol
   875                           	FNCALL	_dispLCD_lincol,_dispLCD_instReg
   876                           	FNROOT	_main
   877                           	global	_tabTeclado
   878                           	global	main@F1284
   879                           	global	main@F1282
   880                           psect	idataBANK0,class=CODE,space=0,delta=2,noexec
   881                           global __pidataBANK0
   882                           __pidataBANK0:
   883  0472                     	file	"teclado.c"
   884                           	line	18
   885                           
   886                           ;initializer for _tabTeclado
   887                           	retlw	031h
   888  0472  3431               	retlw	032h
   889  0473  3432               	retlw	033h
   890  0474  3433               	retlw	041h
   891  0475  3441               	retlw	034h
   892  0476  3434               	retlw	035h
   893  0477  3435               	retlw	036h
   894  0478  3436               	retlw	042h
   895  0479  3442               	retlw	037h
   896  047A  3437               	retlw	038h
   897  047B  3438               	retlw	039h
   898  047C  3439               	retlw	043h
   899  047D  3443               	retlw	02Ah
   900  047E  342A               	retlw	030h
   901  047F  3430               	retlw	023h
   902  0480  3423               	retlw	044h
   903  0481  3444               	file	"main.c"
   904                           	line	14
   905                           
   906                           ;initializer for main@F1284
   907                           	retlw	037h
   908  0482  3437               	retlw	035h
   909  0483  3435               	retlw	033h
   910  0484  3433               	retlw	036h
   911  0485  3436               	retlw	low(0)
   912  0486  3400               	line	13
   913                           
   914                           ;initializer for main@F1282
   915                           	retlw	020h
   916  0487  3420               	retlw	020h
   917  0488  3420               	retlw	020h
   918  0489  3420               	retlw	020h
   919  048A  3420               	retlw	low(0)
   920  048B  3400               	global	_PORTB
   921                           _PORTB	set	0x6
   922  0006                     	global	_LCDbits
   923                           _LCDbits	set	8
   924  0008                     	global	_TRISB
   925                           _TRISB	set	0x86
   926  0086                     	global	_TRISDbits
   927                           _TRISDbits	set	0x88
   928  0088                     	global	_ANSELH
   929                           _ANSELH	set	0x189
   930  0189                     psect	strings,class=STRING,delta=2,noexec
   931                           global __pstrings
   932                           __pstrings:
   933  0003                     stringtab:
   934  0003                     	global    __stringtab
   935                           __stringtab:
   936  0003                     ;	String table - string pointers are 1 byte each
   937                           	btfsc	(btemp+1),7
   938  0003  1BFF               	ljmp	stringcode
   939  0004  280D               	bcf	status,7
   940  0005  1383               	btfsc	(btemp+1),0
   941  0006  187F               	bsf	status,7
   942  0007  1783               	movf	indf,w
   943  0008  0800               	incf fsr
   944  0009  0A84               skipnz
   945  000A  1903               incf btemp+1
   946  000B  0AFF               	return
   947  000C  0008               stringcode:stringdir:
   948  000D                     movlw high(stringdir)
      + 000D                     stringdir:	
   949  000D  3000               movwf pclath
   950  000E  008A               movf fsr,w
   951  000F  0804               incf fsr
   952  0010  0A84               	addwf pc
   953  0011  0782               	global __stringbase
   954                           __stringbase:
   955  0012                     	retlw	0
   956  0012  3400               psect	strings
   957                           	global    __end_of__stringtab
   958                           __end_of__stringtab:
   959  0013                     	
   960                           STR_6:	
   961  0013                     	retlw	32	;' '
   962  0013  3420               	retlw	32	;' '
   963  0014  3420               	retlw	32	;' '
   964  0015  3420               	retlw	32	;' '
   965  0016  3420               	retlw	32	;' '
   966  0017  3420               	retlw	32	;' '
   967  0018  3420               	retlw	32	;' '
   968  0019  3420               	retlw	32	;' '
   969  001A  3420               	retlw	32	;' '
   970  001B  3420               	retlw	32	;' '
   971  001C  3420               	retlw	32	;' '
   972  001D  3420               	retlw	32	;' '
   973  001E  3420               	retlw	32	;' '
   974  001F  3420               	retlw	32	;' '
   975  0020  3420               	retlw	32	;' '
   976  0021  3420               	retlw	32	;' '
   977  0022  3420               	retlw	0
   978  0023  3400               psect	strings
   979                           	
   980                           STR_7:	
   981  0024                     	retlw	83	;'S'
   982  0024  3453               	retlw	101	;'e'
   983  0025  3465               	retlw	110	;'n'
   984  0026  346E               	retlw	104	;'h'
   985  0027  3468               	retlw	97	;'a'
   986  0028  3461               	retlw	58	;':'
   987  0029  343A               	retlw	32	;' '
   988  002A  3420               	retlw	32	;' '
   989  002B  3420               	retlw	32	;' '
   990  002C  3420               	retlw	32	;' '
   991  002D  3420               	retlw	32	;' '
   992  002E  3420               	retlw	32	;' '
   993  002F  3420               	retlw	32	;' '
   994  0030  3420               	retlw	32	;' '
   995  0031  3420               	retlw	32	;' '
   996  0032  3420               	retlw	32	;' '
   997  0033  3420               	retlw	0
   998  0034  3400               psect	strings
   999                           	
  1000                           STR_1:	
  1001  0035                     	retlw	32	;' '
  1002  0035  3420               	retlw	32	;' '
  1003  0036  3420               	retlw	32	;' '
  1004  0037  3420               	retlw	32	;' '
  1005  0038  3420               	retlw	32	;' '
  1006  0039  3420               	retlw	83	;'S'
  1007  003A  3453               	retlw	69	;'E'
  1008  003B  3445               	retlw	78	;'N'
  1009  003C  344E               	retlw	65	;'A'
  1010  003D  3441               	retlw	73	;'I'
  1011  003E  3449               	retlw	32	;' '
  1012  003F  3420               	retlw	32	;' '
  1013  0040  3420               	retlw	32	;' '
  1014  0041  3420               	retlw	32	;' '
  1015  0042  3420               	retlw	32	;' '
  1016  0043  3420               	retlw	32	;' '
  1017  0044  3420               	retlw	0
  1018  0045  3400               psect	strings
  1019                           	
  1020                           STR_5:	
  1021  0046                     	retlw	79	;'O'
  1022  0046  344F               	retlw	112	;'p'
  1023  0047  3470               	retlw	101	;'e'
  1024  0048  3465               	retlw	114	;'r'
  1025  0049  3472               	retlw	97	;'a'
  1026  004A  3461               	retlw	110	;'n'
  1027  004B  346E               	retlw	100	;'d'
  1028  004C  3464               	retlw	111	;'o'
  1029  004D  346F               	retlw	46	;'.'
  1030  004E  342E               	retlw	46	;'.'
  1031  004F  342E               	retlw	46	;'.'
  1032  0050  342E               	retlw	32	;' '
  1033  0051  3420               	retlw	32	;' '
  1034  0052  3420               	retlw	32	;' '
  1035  0053  3420               	retlw	32	;' '
  1036  0054  3420               	retlw	32	;' '
  1037  0055  3420               	retlw	0
  1038  0056  3400               psect	strings
  1039                           	
  1040                           STR_2:	
  1041  0057                     	retlw	32	;' '
  1042  0057  3420               	retlw	32	;' '
  1043  0058  3420               	retlw	32	;' '
  1044  0059  3420               	retlw	83	;'S'
  1045  005A  3453               	retlw	97	;'a'
  1046  005B  3461               	retlw	117	;'u'
  1047  005C  3475               	retlw	100	;'d'
  1048  005D  3464               	retlw	97	;'a'
  1049  005E  3461               	retlw	99	;'c'
  1050  005F  3463               	retlw	111	;'o'
  1051  0060  346F               	retlw	101	;'e'
  1052  0061  3465               	retlw	115	;'s'
  1053  0062  3473               	retlw	32	;' '
  1054  0063  3420               	retlw	32	;' '
  1055  0064  3420               	retlw	32	;' '
  1056  0065  3420               	retlw	32	;' '
  1057  0066  3420               	retlw	0
  1058  0067  3400               psect	strings
  1059                           	
  1060                           STR_3:	
  1061  0068                     	retlw	32	;' '
  1062  0068  3420               	retlw	32	;' '
  1063  0069  3420               	retlw	32	;' '
  1064  006A  3420               	retlw	67	;'C'
  1065  006B  3443               	retlw	97	;'a'
  1066  006C  3461               	retlw	105	;'i'
  1067  006D  3469               	retlw	120	;'x'
  1068  006E  3478               	retlw	97	;'a'
  1069  006F  3461               	retlw	32	;' '
  1070  0070  3420               	retlw	66	;'B'
  1071  0071  3442               	retlw	111	;'o'
  1072  0072  346F               	retlw	120	;'x'
  1073  0073  3478               	retlw	32	;' '
  1074  0074  3420               	retlw	32	;' '
  1075  0075  3420               	retlw	32	;' '
  1076  0076  3420               	retlw	32	;' '
  1077  0077  3420               	retlw	0
  1078  0078  3400               psect	strings
  1079                           	
  1080                           STR_8:	
  1081  0079                     	retlw	32	;' '
  1082  0079  3420               	retlw	83	;'S'
  1083  007A  3453               	retlw	101	;'e'
  1084  007B  3465               	retlw	110	;'n'
  1085  007C  346E               	retlw	104	;'h'
  1086  007D  3468               	retlw	97	;'a'
  1087  007E  3461               	retlw	32	;' '
  1088  007F  3420               	retlw	99	;'c'
  1089  0080  3463               	retlw	111	;'o'
  1090  0081  346F               	retlw	114	;'r'
  1091  0082  3472               	retlw	114	;'r'
  1092  0083  3472               	retlw	101	;'e'
  1093  0084  3465               	retlw	116	;'t'
  1094  0085  3474               	retlw	97	;'a'
  1095  0086  3461               	retlw	33	;'!'
  1096  0087  3421               	retlw	32	;' '
  1097  0088  3420               	retlw	0
  1098  0089  3400               psect	strings
  1099                           	
  1100                           STR_9:	
  1101  008A                     	retlw	83	;'S'
  1102  008A  3453               	retlw	101	;'e'
  1103  008B  3465               	retlw	110	;'n'
  1104  008C  346E               	retlw	104	;'h'
  1105  008D  3468               	retlw	97	;'a'
  1106  008E  3461               	retlw	32	;' '
  1107  008F  3420               	retlw	105	;'i'
  1108  0090  3469               	retlw	110	;'n'
  1109  0091  346E               	retlw	99	;'c'
  1110  0092  3463               	retlw	111	;'o'
  1111  0093  346F               	retlw	114	;'r'
  1112  0094  3472               	retlw	114	;'r'
  1113  0095  3472               	retlw	101	;'e'
  1114  0096  3465               	retlw	116	;'t'
  1115  0097  3474               	retlw	97	;'a'
  1116  0098  3461               	retlw	33	;'!'
  1117  0099  3421               	retlw	0
  1118  009A  3400               psect	strings
  1119                           	
  1120                           STR_4:	
  1121  009B                     	retlw	65	;'A'
  1122  009B  3441               	retlw	58	;':'
  1123  009C  343A               	retlw	79	;'O'
  1124  009D  344F               	retlw	112	;'p'
  1125  009E  3470               	retlw	101	;'e'
  1126  009F  3465               	retlw	114	;'r'
  1127  00A0  3472               	retlw	97	;'a'
  1128  00A1  3461               	retlw	99	;'c'
  1129  00A2  3463               	retlw	97	;'a'
  1130  00A3  3461               	retlw	111	;'o'
  1131  00A4  346F               	retlw	32	;' '
  1132  00A5  3420               	retlw	67	;'C'
  1133  00A6  3443               	retlw	58	;':'
  1134  00A7  343A               	retlw	67	;'C'
  1135  00A8  3443               	retlw	102	;'f'
  1136  00A9  3466               	retlw	103	;'g'
  1137  00AA  3467               	retlw	0
  1138  00AB  3400               psect	strings
  1139                           ; #config settings
  1140                           global __CFG_FOSC$INTRC_NOCLKOUT
  1141                           __CFG_FOSC$INTRC_NOCLKOUT equ 0x0
  1142  0000                     global __CFG_WDTE$OFF
  1143                           __CFG_WDTE$OFF equ 0x0
  1144  0000                     global __CFG_PWRTE$OFF
  1145                           __CFG_PWRTE$OFF equ 0x0
  1146  0000                     global __CFG_MCLRE$OFF
  1147                           __CFG_MCLRE$OFF equ 0x0
  1148  0000                     global __CFG_CP$OFF
  1149                           __CFG_CP$OFF equ 0x0
  1150  0000                     global __CFG_CPD$OFF
  1151                           __CFG_CPD$OFF equ 0x0
  1152  0000                     global __CFG_BOREN$OFF
  1153                           __CFG_BOREN$OFF equ 0x0
  1154  0000                     global __CFG_IESO$OFF
  1155                           __CFG_IESO$OFF equ 0x0
  1156  0000                     global __CFG_FCMEN$OFF
  1157                           __CFG_FCMEN$OFF equ 0x0
  1158  0000                     global __CFG_LVP$OFF
  1159                           __CFG_LVP$OFF equ 0x0
  1160  0000                     global __CFG_BOR4V$BOR40V
  1161                           __CFG_BOR4V$BOR40V equ 0x0
  1162  0000                     global __CFG_WRT$OFF
  1163                           __CFG_WRT$OFF equ 0x0
  1164  0000                     	file	"C:\Users\20185641\AppData\Local\Temp\s1hc."
  1165                           	line	#
  1166                           psect cinit,class=CODE,delta=2
  1167                           global start_initialization
  1168                           start_initialization:
  1169  07EE                     
  1170                           global __initialization
  1171                           __initialization:
  1172  07EE                     psect	dataBANK0,class=BANK0,space=1,noexec
  1173                           global __pdataBANK0
  1174                           __pdataBANK0:
  1175  0020                     	file	"teclado.c"
  1176                           	line	18
  1177                           _tabTeclado:
  1178  0020                            ds      16
  1179  0020                     
  1180                           psect	dataBANK0
  1181                           	file	"main.c"
  1182                           	line	14
  1183                           main@F1284:
  1184  0030                            ds      5
  1185  0030                     
  1186                           psect	dataBANK0
  1187                           	file	"main.c"
  1188                           	line	13
  1189                           main@F1282:
  1190  0035                            ds      5
  1191  0035                     
  1192                           	file	"C:\Users\20185641\AppData\Local\Temp\s1hc."
  1193                           	line	#
  1194                           global btemp
  1195                           psect inittext,class=CODE,delta=2
  1196                           global init_fetch0,btemp
  1197                           ;	Called with low address in FSR and high address in W
  1198                           init_fetch0:
  1199  0448                     	movf btemp,w
  1200  0448  087E               	movwf pclath
  1201  0449  008A               	movf btemp+1,w
  1202  044A  087F               	movwf pc
  1203  044B  0082               global init_ram0
  1204                           ;Called with:
  1205                           ;	high address of idata address in btemp 
  1206                           ;	low address of idata address in btemp+1 
  1207                           ;	low address of data in FSR
  1208                           ;	high address + 1 of data in btemp-1
  1209                           init_ram0:
  1210  044C                     	fcall init_fetch0
  1211  044C  120A  118A  2448  120A  118A  	movwf indf,f
  1212  0451  0080               	incf fsr,f
  1213  0452  0A84               	movf fsr,w
  1214  0453  0804               	xorwf btemp-1,w
  1215  0454  067D               	btfsc status,2
  1216  0455  1903               	retlw 0
  1217  0456  3400               	incf btemp+1,f
  1218  0457  0AFF               	btfsc status,2
  1219  0458  1903               	incf btemp,f
  1220  0459  0AFE               	goto init_ram0
  1221  045A  2C4C               ; Initialize objects allocated to BANK0
  1222                           psect cinit,class=CODE,delta=2,merge=1
  1223                           global init_ram0, __pidataBANK0
  1224                           	bcf	status, 7	;select IRP bank0
  1225  07EE  1383               	movlw low(__pdataBANK0+26)
  1226  07EF  303A               	movwf btemp-1,f
  1227  07F0  00FD               	movlw high(__pidataBANK0)
  1228  07F1  3004               	movwf btemp,f
  1229  07F2  00FE               	movlw low(__pidataBANK0)
  1230  07F3  3072               	movwf btemp+1,f
  1231  07F4  00FF               	movlw low(__pdataBANK0)
  1232  07F5  3020               	movwf fsr,f
  1233  07F6  0084               	fcall init_ram0
  1234  07F7  120A  118A  244C  120A  118A  psect cinit,class=CODE,delta=2,merge=1
  1235                           global end_of_initialization,__end_of__initialization
  1236                           
  1237                           ;End of C runtime variable initialization code
  1238                           
  1239                           end_of_initialization:
  1240  07FC                     __end_of__initialization:
  1241  07FC                     clrf status
  1242  07FC  0183               ljmp _main	;jump to C main() function
  1243  07FD  120A  118A  2DFE   psect	cstackCOMMON,class=COMMON,space=1,noexec
  1244                           global __pcstackCOMMON
  1245                           __pcstackCOMMON:
  1246  0070                     ?_teclado_init:	; 1 bytes @ 0x0
  1247  0070                     ??_teclado_init:	; 1 bytes @ 0x0
  1248  0070                     ?_dispLCD_instReg:	; 1 bytes @ 0x0
  1249  0070                     ??_dispLCD_instReg:	; 1 bytes @ 0x0
  1250  0070                     ?_dispLCD_dataReg:	; 1 bytes @ 0x0
  1251  0070                     ??_dispLCD_dataReg:	; 1 bytes @ 0x0
  1252  0070                     ?_dispLCD_init:	; 1 bytes @ 0x0
  1253  0070                     ?_delay:	; 1 bytes @ 0x0
  1254  0070                     ?_main:	; 1 bytes @ 0x0
  1255  0070                     	global	?_teclado
  1256                           ?_teclado:	; 2 bytes @ 0x0
  1257  0070                     	global	delay@t
  1258                           delay@t:	; 2 bytes @ 0x0
  1259  0070                     	ds	2
  1260  0070                     ??_teclado:	; 1 bytes @ 0x2
  1261  0072                     ??_delay:	; 1 bytes @ 0x2
  1262  0072                     	global	dispLCD_instReg@i
  1263                           dispLCD_instReg@i:	; 1 bytes @ 0x2
  1264  0072                     	global	dispLCD_dataReg@d
  1265                           dispLCD_dataReg@d:	; 1 bytes @ 0x2
  1266  0072                     	ds	1
  1267  0072                     ?_dispLCD_lincol:	; 1 bytes @ 0x3
  1268  0073                     ??_dispLCD_init:	; 1 bytes @ 0x3
  1269  0073                     	global	dispLCD_lincol@col
  1270                           dispLCD_lincol@col:	; 1 bytes @ 0x3
  1271  0073                     	ds	1
  1272  0073                     ??_dispLCD_lincol:	; 1 bytes @ 0x4
  1273  0074                     	ds	1
  1274  0074                     	global	dispLCD_lincol@lin
  1275                           dispLCD_lincol@lin:	; 1 bytes @ 0x5
  1276  0075                     	ds	1
  1277  0075                     ?_dispLCD:	; 1 bytes @ 0x6
  1278  0076                     	global	dispLCD@col
  1279                           dispLCD@col:	; 1 bytes @ 0x6
  1280  0076                     	global	teclado@tecla
  1281                           teclado@tecla:	; 1 bytes @ 0x6
  1282  0076                     	ds	1
  1283  0076                     	global	teclado@c
  1284                           teclado@c:	; 1 bytes @ 0x7
  1285  0077                     	global	dispLCD@str
  1286                           dispLCD@str:	; 2 bytes @ 0x7
  1287  0077                     	ds	1
  1288  0077                     	global	teclado@l
  1289                           teclado@l:	; 1 bytes @ 0x8
  1290  0078                     	ds	1
  1291  0078                     ??_dispLCD:	; 1 bytes @ 0x9
  1292  0079                     	ds	1
  1293  0079                     	global	dispLCD@pos
  1294                           dispLCD@pos:	; 1 bytes @ 0xA
  1295  007A                     	ds	1
  1296  007A                     	global	dispLCD@lin
  1297                           dispLCD@lin:	; 1 bytes @ 0xB
  1298  007B                     	ds	1
  1299  007B                     ??_main:	; 1 bytes @ 0xC
  1300  007C                     	ds	2
  1301  007C                     psect	cstackBANK0,class=BANK0,space=1,noexec
  1302                           global __pcstackBANK0
  1303                           __pcstackBANK0:
  1304  003A                     	global	main@passwd
  1305                           main@passwd:	; 5 bytes @ 0x0
  1306  003A                     	ds	5
  1307  003A                     	global	main@password
  1308                           main@password:	; 5 bytes @ 0x5
  1309  003F                     	ds	5
  1310  003F                     	global	main@aux
  1311                           main@aux:	; 1 bytes @ 0xA
  1312  0044                     	ds	1
  1313  0044                     	global	main@cont_passwd
  1314                           main@cont_passwd:	; 1 bytes @ 0xB
  1315  0045                     	ds	1
  1316  0045                     	global	main@estado
  1317                           main@estado:	; 1 bytes @ 0xC
  1318  0046                     	ds	1
  1319  0046                     	global	main@estado_senha
  1320                           main@estado_senha:	; 1 bytes @ 0xD
  1321  0047                     	ds	1
  1322  0047                     	global	main@i
  1323                           main@i:	; 1 bytes @ 0xE
  1324  0048                     	ds	1
  1325  0048                     	global	main@tecla
  1326                           main@tecla:	; 1 bytes @ 0xF
  1327  0049                     	ds	1
  1328  0049                     ;!
  1329                           ;!Data Sizes:
  1330                           ;!    Strings     153
  1331                           ;!    Constant    0
  1332                           ;!    Data        26
  1333                           ;!    BSS         0
  1334                           ;!    Persistent  0
  1335                           ;!    Stack       0
  1336                           ;!
  1337                           ;!Auto Spaces:
  1338                           ;!    Space          Size  Autos    Used
  1339                           ;!    COMMON           14     14      14
  1340                           ;!    BANK0            80     16      42
  1341                           ;!    BANK1            80      0       0
  1342                           ;!    BANK3            96      0       0
  1343                           ;!    BANK2            96      0       0
  1344                           
  1345                           ;!
  1346                           ;!Pointer List with Targets:
  1347                           ;!
  1348                           ;!    dispLCD@str	PTR const unsigned char  size(2) Largest target is 17
  1349                           ;!		 -> STR_9(CODE[17]), STR_8(CODE[17]), STR_7(CODE[17]), STR_6(CODE[17]), 
  1350                           ;!		 -> STR_5(CODE[17]), STR_4(CODE[17]), STR_3(CODE[17]), STR_2(CODE[17]), 
  1351                           ;!		 -> STR_1(CODE[17]), main@password(BANK0[5]), 
  1352                           ;!
  1353                           
  1354                           
  1355                           ;!
  1356                           ;!Critical Paths under _main in COMMON
  1357                           ;!
  1358                           ;!    _main->_dispLCD
  1359                           ;!    _dispLCD_init->_dispLCD_instReg
  1360                           ;!    _dispLCD->_dispLCD_lincol
  1361                           ;!    _dispLCD_lincol->_dispLCD_instReg
  1362                           ;!
  1363                           ;!Critical Paths under _main in BANK0
  1364                           ;!
  1365                           ;!    None.
  1366                           ;!
  1367                           ;!Critical Paths under _main in BANK1
  1368                           ;!
  1369                           ;!    None.
  1370                           ;!
  1371                           ;!Critical Paths under _main in BANK3
  1372                           ;!
  1373                           ;!    None.
  1374                           ;!
  1375                           ;!Critical Paths under _main in BANK2
  1376                           ;!
  1377                           ;!    None.
  1378                           
  1379 ;;
  1380 ;;Main: autosize = 0, tempsize = 2, incstack = 0, save=0
  1381 ;;
  1382                           
  1383                           ;!
  1384                           ;!Call Graph Tables:
  1385                           ;!
  1386                           ;! ---------------------------------------------------------------------------------
  1387                           ;! (Depth) Function   	        Calls       Base Space   Used Autos Params    Refs
  1388                           ;! ---------------------------------------------------------------------------------
  1389                           ;! (0) _main                                                18    18      0    3083
  1390                           ;!                                             12 COMMON     2     2      0
  1391                           ;!                                              0 BANK0     16    16      0
  1392                           ;!                              _delay
  1393                           ;!                            _dispLCD
  1394                           ;!                       _dispLCD_init
  1395                           ;!                            _teclado
  1396                           ;!                       _teclado_init
  1397                           ;! ---------------------------------------------------------------------------------
  1398                           ;! (1) _teclado_init                                         0     0      0       0
  1399                           ;! ---------------------------------------------------------------------------------
  1400                           ;! (1) _teclado                                              9     7      2     204
  1401                           ;!                                              0 COMMON     9     7      2
  1402                           ;! ---------------------------------------------------------------------------------
  1403                           ;! (1) _dispLCD_init                                         0     0      0     176
  1404                           ;!                    _dispLCD_instReg
  1405                           ;! ---------------------------------------------------------------------------------
  1406                           ;! (1) _dispLCD                                              6     3      3    1973
  1407                           ;!                                              6 COMMON     6     3      3
  1408                           ;!                    _dispLCD_dataReg
  1409                           ;!                     _dispLCD_lincol
  1410                           ;! ---------------------------------------------------------------------------------
  1411                           ;! (2) _dispLCD_lincol                                       3     2      1     296
  1412                           ;!                                              3 COMMON     3     2      1
  1413                           ;!                    _dispLCD_instReg
  1414                           ;! ---------------------------------------------------------------------------------
  1415                           ;! (2) _dispLCD_instReg                                      3     3      0     176
  1416                           ;!                                              0 COMMON     3     3      0
  1417                           ;! ---------------------------------------------------------------------------------
  1418                           ;! (2) _dispLCD_dataReg                                      3     3      0      44
  1419                           ;!                                              0 COMMON     3     3      0
  1420                           ;! ---------------------------------------------------------------------------------
  1421                           ;! (1) _delay                                                3     1      2      99
  1422                           ;!                                              0 COMMON     3     1      2
  1423                           ;! ---------------------------------------------------------------------------------
  1424                           ;! Estimated maximum stack depth 2
  1425                           ;! ---------------------------------------------------------------------------------
  1426                           ;!
  1427                           ;! Call Graph Graphs:
  1428                           ;!
  1429                           ;! _main (ROOT)
  1430                           ;!   _delay
  1431                           ;!   _dispLCD
  1432                           ;!     _dispLCD_dataReg
  1433                           ;!     _dispLCD_lincol
  1434                           ;!       _dispLCD_instReg
  1435                           ;!   _dispLCD_init
  1436                           ;!     _dispLCD_instReg
  1437                           ;!   _teclado
  1438                           ;!   _teclado_init
  1439                           ;!
  1440                           
  1441                           ;! Address spaces:
  1442                           
  1443                           ;!Name               Size   Autos  Total    Cost      Usage
  1444                           ;!BANK3               60      0       0       9        0.0%
  1445                           ;!BITBANK3            60      0       0       8        0.0%
  1446                           ;!SFR3                 0      0       0       4        0.0%
  1447                           ;!BITSFR3              0      0       0       4        0.0%
  1448                           ;!BANK2               60      0       0      11        0.0%
  1449                           ;!BITBANK2            60      0       0      10        0.0%
  1450                           ;!SFR2                 0      0       0       5        0.0%
  1451                           ;!BITSFR2              0      0       0       5        0.0%
  1452                           ;!BANK1               50      0       0       7        0.0%
  1453                           ;!BITBANK1            50      0       0       6        0.0%
  1454                           ;!SFR1                 0      0       0       2        0.0%
  1455                           ;!BITSFR1              0      0       0       2        0.0%
  1456                           ;!BANK0               50     10      2A       5       52.5%
  1457                           ;!BITBANK0            50      0       0       4        0.0%
  1458                           ;!SFR0                 0      0       0       1        0.0%
  1459                           ;!BITSFR0              0      0       0       1        0.0%
  1460                           ;!COMMON               E      E       E       1      100.0%
  1461                           ;!BITCOMMON            E      0       0       0        0.0%
  1462                           ;!CODE                 0      0       0       0        0.0%
  1463                           ;!DATA                 0      0      38      12        0.0%
  1464                           ;!ABS                  0      0      38       3        0.0%
  1465                           ;!NULL                 0      0       0       0        0.0%
  1466                           ;!STACK                0      0       0       2        0.0%
  1467                           ;!EEDATA             100      0       0       0        0.0%
  1468                           
  1469                           	global	_main
  1470                           
  1471 ;; *************** function _main *****************
  1472 ;; Defined at:
  1473 ;;		line 9 in file "main.c"
  1474 ;; Parameters:    Size  Location     Type
  1475 ;;		None
  1476 ;; Auto vars:     Size  Location     Type
  1477 ;;  password        5    5[BANK0 ] unsigned char [5]
  1478 ;;  passwd          5    0[BANK0 ] unsigned char [5]
  1479 ;;  tecla           1   15[BANK0 ] unsigned char 
  1480 ;;  i               1   14[BANK0 ] unsigned char 
  1481 ;;  estado_senha    1   13[BANK0 ] unsigned char 
  1482 ;;  estado          1   12[BANK0 ] unsigned char 
  1483 ;;  cont_passwd     1   11[BANK0 ] unsigned char 
  1484 ;;  aux             1   10[BANK0 ] unsigned char 
  1485 ;; Return value:  Size  Location     Type
  1486 ;;                  1    wreg      void 
  1487 ;; Registers used:
  1488 ;;		wreg, fsr0l, fsr0h, status,2, status,0, btemp+1, pclath, cstack
  1489 ;; Tracked objects:
  1490 ;;		On entry : B00/0
  1491 ;;		On exit  : 0/0
  1492 ;;		Unchanged: 0/0
  1493 ;; Data sizes:     COMMON   BANK0   BANK1   BANK3   BANK2
  1494 ;;      Params:         0       0       0       0       0
  1495 ;;      Locals:         0      16       0       0       0
  1496 ;;      Temps:          2       0       0       0       0
  1497 ;;      Totals:         2      16       0       0       0
  1498 ;;Total ram usage:       18 bytes
  1499 ;; Hardware stack levels required when called:    3
  1500 ;; This function calls:
  1501 ;;		_delay
  1502 ;;		_dispLCD
  1503 ;;		_dispLCD_init
  1504 ;;		_teclado
  1505 ;;		_teclado_init
  1506 ;; This function is called by:
  1507 ;;		Startup code after reset
  1508 ;; This function uses a non-reentrant model
  1509 ;;
  1510                           psect	maintext,global,class=CODE,delta=2,split=1,group=0
  1511                           	file	"main.c"
  1512                           	line	9
  1513                           global __pmaintext
  1514                           __pmaintext:	;psect for function _main
  1515  05FE                     psect	maintext
  1516                           	file	"main.c"
  1517                           	line	9
  1518                           	global	__size_of_main
  1519                           	__size_of_main	equ	__end_of_main-_main
  1520  01F0                     	
  1521                           _main:	
  1522  05FE                     ;incstack = 0
  1523                           	opt	stack 5
  1524                           ; Regs used in _main: [wreg-fsr0h+status,2+status,0+btemp+1+pclath+cstack]
  1525                           	line	12
  1526                           	
  1527                           l1125:	
  1528  05FE                     ;main.c: 12:     char estado = 0;
  1529                           	bcf	status, 5	;RP0=0, select bank0
  1530  05FE  1283               	bcf	status, 6	;RP1=0, select bank0
  1531  05FF  1303               	clrf	(main@estado)
  1532  0600  01C6               	line	13
  1533                           ;main.c: 13:     char estado_senha = 0;
  1534                           	clrf	(main@estado_senha)
  1535  0601  01C7               	line	14
  1536                           	
  1537                           l1127:	
  1538  0602                     ;main.c: 14:     char password[5] = "    ";
  1539                           	movlw	(main@password)&0ffh
  1540  0602  303F               	movwf	fsr0
  1541  0603  0084               	movf	(main@F1282),w
  1542  0604  0835               	bcf	status, 7	;select IRP bank0
  1543  0605  1383               	movwf	indf
  1544  0606  0080               	incf	fsr0,f
  1545  0607  0A84               	movf	(main@F1282)+1,w
  1546  0608  0836               	movwf	indf
  1547  0609  0080               	incf	fsr0,f
  1548  060A  0A84               	movf	(main@F1282)+2,w
  1549  060B  0837               	movwf	indf
  1550  060C  0080               	incf	fsr0,f
  1551  060D  0A84               	movf	(main@F1282)+3,w
  1552  060E  0838               	movwf	indf
  1553  060F  0080               	incf	fsr0,f
  1554  0610  0A84               	movf	(main@F1282)+4,w
  1555  0611  0839               	movwf	indf
  1556  0612  0080               	line	15
  1557                           	
  1558                           l1129:	
  1559  0613                     ;main.c: 15:     char passwd[] = "7536";
  1560                           	movlw	(main@passwd)&0ffh
  1561  0613  303A               	movwf	fsr0
  1562  0614  0084               	movf	(main@F1284),w
  1563  0615  0830               	movwf	indf
  1564  0616  0080               	incf	fsr0,f
  1565  0617  0A84               	movf	(main@F1284)+1,w
  1566  0618  0831               	movwf	indf
  1567  0619  0080               	incf	fsr0,f
  1568  061A  0A84               	movf	(main@F1284)+2,w
  1569  061B  0832               	movwf	indf
  1570  061C  0080               	incf	fsr0,f
  1571  061D  0A84               	movf	(main@F1284)+3,w
  1572  061E  0833               	movwf	indf
  1573  061F  0080               	incf	fsr0,f
  1574  0620  0A84               	movf	(main@F1284)+4,w
  1575  0621  0834               	movwf	indf
  1576  0622  0080               	line	16
  1577                           ;main.c: 16:     char cont_passwd = 0;
  1578                           	clrf	(main@cont_passwd)
  1579  0623  01C5               	line	20
  1580                           	
  1581                           l1131:	
  1582  0624                     ;main.c: 17:     char tecla;;main.c: 18:     char i;;main.c: 19:     char aux;;main.c: 2
                                 0:     dispLCD_init();
  1583                           	fcall	_dispLCD_init
  1584  0624  120A  118A  248C  120A  118A  	line	21
  1585                           	
  1586                           l1133:	
  1587  0629                     ;main.c: 21:     teclado_init();
  1588                           	fcall	_teclado_init
  1589  0629  120A  118A  242A  120A  118A  	line	23
  1590                           	
  1591                           l1135:	
  1592  062E                     ;main.c: 23:     dispLCD(0,0,"     SENAI      ");
  1593                           	clrf	(dispLCD@col)
  1594  062E  01F6               	movlw	(low((((STR_1)-__stringbase)|8000h)))&0ffh
  1595  062F  3023               	movwf	(dispLCD@str)
  1596  0630  00F7               	movlw	80h
  1597  0631  3080               	movwf	(dispLCD@str+1)
  1598  0632  00F8               	movlw	low(0)
  1599  0633  3000               	fcall	_dispLCD
  1600  0634  120A  118A  24DF  120A  118A  	goto	l1137
  1601  0639  2E3A               	line	25
  1602                           ;main.c: 25:     while( 1 )
  1603                           	
  1604                           l63:	
  1605  063A                     	line	27
  1606                           	
  1607                           l1137:	
  1608  063A                     ;main.c: 26:     {;main.c: 27:         tecla = teclado();
  1609                           	fcall	_teclado
  1610  063A  120A  118A  251A  120A  118A  	movf	(0+(?_teclado)),w
  1611  063F  0870               	movwf	(??_main+0)+0
  1612  0640  00FC               	movf	(??_main+0)+0,w
  1613  0641  087C               	bcf	status, 5	;RP0=0, select bank0
  1614  0642  1283               	bcf	status, 6	;RP1=0, select bank0
  1615  0643  1303               	movwf	(main@tecla)
  1616  0644  00C9               	line	30
  1617                           ;main.c: 30:         switch( estado )
  1618                           	goto	l1191
  1619  0645  2F1C               	line	32
  1620                           ;main.c: 31:         {;main.c: 32:             case 0:
  1621                           	
  1622                           l65:	
  1623  0646                     	line	33
  1624                           	
  1625                           l1139:	
  1626  0646                     ;main.c: 33:                     dispLCD(0,0,"   Saudacoes    ");
  1627                           	clrf	(dispLCD@col)
  1628  0646  01F6               	movlw	(low((((STR_2)-__stringbase)|8000h)))&0ffh
  1629  0647  3045               	movwf	(dispLCD@str)
  1630  0648  00F7               	movlw	80h
  1631  0649  3080               	movwf	(dispLCD@str+1)
  1632  064A  00F8               	movlw	low(0)
  1633  064B  3000               	fcall	_dispLCD
  1634  064C  120A  118A  24DF  120A  118A  	line	34
  1635                           	
  1636                           l1141:	
  1637  0651                     ;main.c: 34:                     delay(3000);
  1638                           	movlw	0B8h
  1639  0651  30B8               	movwf	(delay@t)
  1640  0652  00F0               	movlw	0Bh
  1641  0653  300B               	movwf	((delay@t))+1
  1642  0654  00F1               	fcall	_delay
  1643  0655  120A  118A  245B  120A  118A  	line	35
  1644                           	
  1645                           l1143:	
  1646  065A                     ;main.c: 35:                     estado = 1;
  1647                           	bcf	status, 5	;RP0=0, select bank0
  1648  065A  1283               	bcf	status, 6	;RP1=0, select bank0
  1649  065B  1303               	clrf	(main@estado)
  1650  065C  01C6               	incf	(main@estado),f
  1651  065D  0AC6               	line	36
  1652                           ;main.c: 36:                     break;
  1653                           	goto	l1239
  1654  065E  2FC7               	line	37
  1655                           ;main.c: 37:             case 1:
  1656                           	
  1657                           l67:	
  1658  065F                     	line	38
  1659                           	
  1660                           l1145:	
  1661  065F                     ;main.c: 38:                     dispLCD(0,0,"   Caixa Box    ");
  1662                           	clrf	(dispLCD@col)
  1663  065F  01F6               	movlw	(low((((STR_3)-__stringbase)|8000h)))&0ffh
  1664  0660  3056               	movwf	(dispLCD@str)
  1665  0661  00F7               	movlw	80h
  1666  0662  3080               	movwf	(dispLCD@str+1)
  1667  0663  00F8               	movlw	low(0)
  1668  0664  3000               	fcall	_dispLCD
  1669  0665  120A  118A  24DF  120A  118A  	line	39
  1670                           ;main.c: 39:                     dispLCD(1,0,"A:Operacao C:Cfg");
  1671                           	clrf	(dispLCD@col)
  1672  066A  01F6               	movlw	(low((((STR_4)-__stringbase)|8000h)))&0ffh
  1673  066B  3089               	movwf	(dispLCD@str)
  1674  066C  00F7               	movlw	80h
  1675  066D  3080               	movwf	(dispLCD@str+1)
  1676  066E  00F8               	movlw	low(01h)
  1677  066F  3001               	fcall	_dispLCD
  1678  0670  120A  118A  24DF  120A  118A  	line	40
  1679                           	
  1680                           l1147:	
  1681  0675                     ;main.c: 40:                     if( tecla == 'A' )
  1682                           		movlw	65
  1683  0675  3041               	bcf	status, 5	;RP0=0, select bank0
  1684  0676  1283               	bcf	status, 6	;RP1=0, select bank0
  1685  0677  1303               	xorwf	((main@tecla)),w
  1686  0678  0649               	btfss	status,2
  1687  0679  1D03               	goto	u561
  1688  067A  2E7C               	goto	u560
  1689  067B  2E7D               u561:
  1690  067C                     	goto	l1151
  1691  067C  2E82               u560:
  1692  067D                     	line	41
  1693                           	
  1694                           l1149:	
  1695  067D                     ;main.c: 41:                         estado = 10;
  1696                           	movlw	low(0Ah)
  1697  067D  300A               	movwf	(??_main+0)+0
  1698  067E  00FC               	movf	(??_main+0)+0,w
  1699  067F  087C               	movwf	(main@estado)
  1700  0680  00C6               	goto	l1151
  1701  0681  2E82               	
  1702                           l68:	
  1703  0682                     	line	42
  1704                           	
  1705                           l1151:	
  1706  0682                     ;main.c: 42:                     if( tecla == 'C')
  1707                           		movlw	67
  1708  0682  3043               	xorwf	((main@tecla)),w
  1709  0683  0649               	btfss	status,2
  1710  0684  1D03               	goto	u571
  1711  0685  2E87               	goto	u570
  1712  0686  2E88               u571:
  1713  0687                     	goto	l1239
  1714  0687  2FC7               u570:
  1715  0688                     	line	43
  1716                           	
  1717                           l1153:	
  1718  0688                     ;main.c: 43:                         estado = 20;
  1719                           	movlw	low(014h)
  1720  0688  3014               	movwf	(??_main+0)+0
  1721  0689  00FC               	movf	(??_main+0)+0,w
  1722  068A  087C               	movwf	(main@estado)
  1723  068B  00C6               	goto	l1239
  1724  068C  2FC7               	
  1725                           l69:	
  1726  068D                     	line	44
  1727                           ;main.c: 44:                     break;
  1728                           	goto	l1239
  1729  068D  2FC7               	line	45
  1730                           ;main.c: 45:             case 10:
  1731                           	
  1732                           l70:	
  1733  068E                     	line	46
  1734                           	
  1735                           l1155:	
  1736  068E                     ;main.c: 46:                     dispLCD(0,0,"Operando...     ");
  1737                           	clrf	(dispLCD@col)
  1738  068E  01F6               	movlw	(low((((STR_5)-__stringbase)|8000h)))&0ffh
  1739  068F  3034               	movwf	(dispLCD@str)
  1740  0690  00F7               	movlw	80h
  1741  0691  3080               	movwf	(dispLCD@str+1)
  1742  0692  00F8               	movlw	low(0)
  1743  0693  3000               	fcall	_dispLCD
  1744  0694  120A  118A  24DF  120A  118A  	line	47
  1745                           ;main.c: 47:                     dispLCD(1,0,"                ");
  1746                           	clrf	(dispLCD@col)
  1747  0699  01F6               	movlw	(low((((STR_6)-__stringbase)|8000h)))&0ffh
  1748  069A  3001               	movwf	(dispLCD@str)
  1749  069B  00F7               	movlw	80h
  1750  069C  3080               	movwf	(dispLCD@str+1)
  1751  069D  00F8               	movlw	low(01h)
  1752  069E  3001               	fcall	_dispLCD
  1753  069F  120A  118A  24DF  120A  118A  	line	48
  1754                           	
  1755                           l1157:	
  1756  06A4                     ;main.c: 48:                     if( tecla == '*')
  1757                           		movlw	42
  1758  06A4  302A               	bcf	status, 5	;RP0=0, select bank0
  1759  06A5  1283               	bcf	status, 6	;RP1=0, select bank0
  1760  06A6  1303               	xorwf	((main@tecla)),w
  1761  06A7  0649               	btfss	status,2
  1762  06A8  1D03               	goto	u581
  1763  06A9  2EAB               	goto	u580
  1764  06AA  2EAC               u581:
  1765  06AB                     	goto	l1239
  1766  06AB  2FC7               u580:
  1767  06AC                     	line	49
  1768                           	
  1769                           l1159:	
  1770  06AC                     ;main.c: 49:                         estado = 1;
  1771                           	clrf	(main@estado)
  1772  06AC  01C6               	incf	(main@estado),f
  1773  06AD  0AC6               	goto	l1239
  1774  06AE  2FC7               	
  1775                           l71:	
  1776  06AF                     	line	50
  1777                           ;main.c: 50:                     break;
  1778                           	goto	l1239
  1779  06AF  2FC7               	line	51
  1780                           ;main.c: 51:             case 20:
  1781                           	
  1782                           l72:	
  1783  06B0                     	line	52
  1784                           	
  1785                           l1161:	
  1786  06B0                     ;main.c: 52:                     dispLCD(0,0,"Senha:          ");
  1787                           	clrf	(dispLCD@col)
  1788  06B0  01F6               	movlw	(low((((STR_7)-__stringbase)|8000h)))&0ffh
  1789  06B1  3012               	movwf	(dispLCD@str)
  1790  06B2  00F7               	movlw	80h
  1791  06B3  3080               	movwf	(dispLCD@str+1)
  1792  06B4  00F8               	movlw	low(0)
  1793  06B5  3000               	fcall	_dispLCD
  1794  06B6  120A  118A  24DF  120A  118A  	line	53
  1795                           	
  1796                           l1163:	
  1797  06BB                     ;main.c: 53:                     estado_senha = 10;
  1798                           	movlw	low(0Ah)
  1799  06BB  300A               	movwf	(??_main+0)+0
  1800  06BC  00FC               	movf	(??_main+0)+0,w
  1801  06BD  087C               	bcf	status, 5	;RP0=0, select bank0
  1802  06BE  1283               	bcf	status, 6	;RP1=0, select bank0
  1803  06BF  1303               	movwf	(main@estado_senha)
  1804  06C0  00C7               	line	54
  1805                           	
  1806                           l1165:	
  1807  06C1                     ;main.c: 54:                     estado = 21;
  1808                           	movlw	low(015h)
  1809  06C1  3015               	movwf	(??_main+0)+0
  1810  06C2  00FC               	movf	(??_main+0)+0,w
  1811  06C3  087C               	movwf	(main@estado)
  1812  06C4  00C6               	line	55
  1813                           ;main.c: 55:                     break;
  1814                           	goto	l1239
  1815  06C5  2FC7               	line	56
  1816                           ;main.c: 56:             case 21:
  1817                           	
  1818                           l73:	
  1819  06C6                     	line	57
  1820                           	
  1821                           l1167:	
  1822  06C6                     ;main.c: 57:                     dispLCD(0,7, password );
  1823                           	movlw	low(07h)
  1824  06C6  3007               	movwf	(??_main+0)+0
  1825  06C7  00FC               	movf	(??_main+0)+0,w
  1826  06C8  087C               	movwf	(dispLCD@col)
  1827  06C9  00F6               	movlw	(low(main@password|((0x0)<<8))&0ffh)
  1828  06CA  303F               	movwf	(dispLCD@str)
  1829  06CB  00F7               	movlw	(0x0)
  1830  06CC  3000               	movwf	(dispLCD@str+1)
  1831  06CD  00F8               	movlw	low(0)
  1832  06CE  3000               	fcall	_dispLCD
  1833  06CF  120A  118A  24DF  120A  118A  	line	59
  1834                           	
  1835                           l1169:	
  1836  06D4                     ;main.c: 59:                     if( estado_senha == 30 )
  1837                           		movlw	30
  1838  06D4  301E               	bcf	status, 5	;RP0=0, select bank0
  1839  06D5  1283               	bcf	status, 6	;RP1=0, select bank0
  1840  06D6  1303               	xorwf	((main@estado_senha)),w
  1841  06D7  0647               	btfss	status,2
  1842  06D8  1D03               	goto	u591
  1843  06D9  2EDB               	goto	u590
  1844  06DA  2EDC               u591:
  1845  06DB                     	goto	l1173
  1846  06DB  2EE1               u590:
  1847  06DC                     	line	60
  1848                           	
  1849                           l1171:	
  1850  06DC                     ;main.c: 60:                         estado = 23;
  1851                           	movlw	low(017h)
  1852  06DC  3017               	movwf	(??_main+0)+0
  1853  06DD  00FC               	movf	(??_main+0)+0,w
  1854  06DE  087C               	movwf	(main@estado)
  1855  06DF  00C6               	goto	l1173
  1856  06E0  2EE1               	
  1857                           l74:	
  1858  06E1                     	line	61
  1859                           	
  1860                           l1173:	
  1861  06E1                     ;main.c: 61:                     if( estado_senha == 40 )
  1862                           		movlw	40
  1863  06E1  3028               	xorwf	((main@estado_senha)),w
  1864  06E2  0647               	btfss	status,2
  1865  06E3  1D03               	goto	u601
  1866  06E4  2EE6               	goto	u600
  1867  06E5  2EE7               u601:
  1868  06E6                     	goto	l1239
  1869  06E6  2FC7               u600:
  1870  06E7                     	line	62
  1871                           	
  1872                           l1175:	
  1873  06E7                     ;main.c: 62:                         estado = 26;
  1874                           	movlw	low(01Ah)
  1875  06E7  301A               	movwf	(??_main+0)+0
  1876  06E8  00FC               	movf	(??_main+0)+0,w
  1877  06E9  087C               	movwf	(main@estado)
  1878  06EA  00C6               	goto	l1239
  1879  06EB  2FC7               	
  1880                           l75:	
  1881  06EC                     	line	63
  1882                           ;main.c: 63:                     break;
  1883                           	goto	l1239
  1884  06EC  2FC7               	line	64
  1885                           ;main.c: 64:             case 23:
  1886                           	
  1887                           l76:	
  1888  06ED                     	line	65
  1889                           	
  1890                           l1177:	
  1891  06ED                     ;main.c: 65:                     dispLCD(0,0," Senha correta! ");
  1892                           	clrf	(dispLCD@col)
  1893  06ED  01F6               	movlw	(low((((STR_8)-__stringbase)|8000h)))&0ffh
  1894  06EE  3067               	movwf	(dispLCD@str)
  1895  06EF  00F7               	movlw	80h
  1896  06F0  3080               	movwf	(dispLCD@str+1)
  1897  06F1  00F8               	movlw	low(0)
  1898  06F2  3000               	fcall	_dispLCD
  1899  06F3  120A  118A  24DF  120A  118A  	line	66
  1900                           	
  1901                           l1179:	
  1902  06F8                     ;main.c: 66:                     if( tecla == '*')
  1903                           		movlw	42
  1904  06F8  302A               	bcf	status, 5	;RP0=0, select bank0
  1905  06F9  1283               	bcf	status, 6	;RP1=0, select bank0
  1906  06FA  1303               	xorwf	((main@tecla)),w
  1907  06FB  0649               	btfss	status,2
  1908  06FC  1D03               	goto	u611
  1909  06FD  2EFF               	goto	u610
  1910  06FE  2F00               u611:
  1911  06FF                     	goto	l1239
  1912  06FF  2FC7               u610:
  1913  0700                     	line	67
  1914                           	
  1915                           l1181:	
  1916  0700                     ;main.c: 67:                         estado = 1;
  1917                           	clrf	(main@estado)
  1918  0700  01C6               	incf	(main@estado),f
  1919  0701  0AC6               	goto	l1239
  1920  0702  2FC7               	
  1921                           l77:	
  1922  0703                     	line	68
  1923                           ;main.c: 68:                     break;
  1924                           	goto	l1239
  1925  0703  2FC7               	line	69
  1926                           ;main.c: 69:             case 26:
  1927                           	
  1928                           l78:	
  1929  0704                     	line	70
  1930                           	
  1931                           l1183:	
  1932  0704                     ;main.c: 70:                     dispLCD(0,0,"Senha incorreta!");
  1933                           	clrf	(dispLCD@col)
  1934  0704  01F6               	movlw	(low((((STR_9)-__stringbase)|8000h)))&0ffh
  1935  0705  3078               	movwf	(dispLCD@str)
  1936  0706  00F7               	movlw	80h
  1937  0707  3080               	movwf	(dispLCD@str+1)
  1938  0708  00F8               	movlw	low(0)
  1939  0709  3000               	fcall	_dispLCD
  1940  070A  120A  118A  24DF  120A  118A  	line	71
  1941                           	
  1942                           l1185:	
  1943  070F                     ;main.c: 71:                     if( tecla == '*')
  1944                           		movlw	42
  1945  070F  302A               	bcf	status, 5	;RP0=0, select bank0
  1946  0710  1283               	bcf	status, 6	;RP1=0, select bank0
  1947  0711  1303               	xorwf	((main@tecla)),w
  1948  0712  0649               	btfss	status,2
  1949  0713  1D03               	goto	u621
  1950  0714  2F16               	goto	u620
  1951  0715  2F17               u621:
  1952  0716                     	goto	l1239
  1953  0716  2FC7               u620:
  1954  0717                     	line	72
  1955                           	
  1956                           l1187:	
  1957  0717                     ;main.c: 72:                         estado = 1;
  1958                           	clrf	(main@estado)
  1959  0717  01C6               	incf	(main@estado),f
  1960  0718  0AC6               	goto	l1239
  1961  0719  2FC7               	
  1962                           l79:	
  1963  071A                     	line	73
  1964                           ;main.c: 73:                     break;
  1965                           	goto	l1239
  1966  071A  2FC7               	line	74
  1967                           	
  1968                           l1189:	
  1969  071B                     ;main.c: 74:         }
  1970                           	goto	l1239
  1971  071B  2FC7               	
  1972                           l64:	
  1973  071C                     	
  1974                           l1191:	
  1975  071C                     	movf	(main@estado),w
  1976  071C  0846               	movwf	(??_main+0)+0
  1977  071D  00FC               	clrf	(??_main+0)+0+1
  1978  071E  01FD               	; Switch on 2 bytes has been partitioned into a top level switch of size 1, and 1 sub-s
                                 witches
  1979                           ; Switch size 1, requested type "space"
  1980                           ; Number of cases is 1, Range of values is 0 to 0
  1981                           ; switch strategies available:
  1982                           ; Name         Instructions Cycles
  1983                           ; simple_byte            4     3 (average)
  1984                           ; direct_byte           11     8 (fixed)
  1985                           ; jumptable            260     6 (fixed)
  1986                           ;	Chosen strategy is simple_byte
  1987                           
  1988                           	movf 1+(??_main+0)+0,w
  1989  071F  087D               	opt asmopt_push
  1990                           	opt asmopt_off
  1991                           	xorlw	0^0	; case 0
  1992  0720  3A00               	skipnz
  1993  0721  1903               	goto	l1313
  1994  0722  2F24               	goto	l1239
  1995  0723  2FC7               	opt asmopt_pop
  1996                           	
  1997                           l1313:	
  1998  0724                     ; Switch size 1, requested type "space"
  1999                           ; Number of cases is 7, Range of values is 0 to 26
  2000                           ; switch strategies available:
  2001                           ; Name         Instructions Cycles
  2002                           ; simple_byte           22    12 (average)
  2003                           ; direct_byte           89     8 (fixed)
  2004                           ; jumptable            260     6 (fixed)
  2005                           ;	Chosen strategy is simple_byte
  2006                           
  2007                           	movf 0+(??_main+0)+0,w
  2008  0724  087C               	opt asmopt_push
  2009                           	opt asmopt_off
  2010                           	xorlw	0^0	; case 0
  2011  0725  3A00               	skipnz
  2012  0726  1903               	goto	l1139
  2013  0727  2E46               	xorlw	1^0	; case 1
  2014  0728  3A01               	skipnz
  2015  0729  1903               	goto	l1145
  2016  072A  2E5F               	xorlw	10^1	; case 10
  2017  072B  3A0B               	skipnz
  2018  072C  1903               	goto	l1155
  2019  072D  2E8E               	xorlw	20^10	; case 20
  2020  072E  3A1E               	skipnz
  2021  072F  1903               	goto	l1161
  2022  0730  2EB0               	xorlw	21^20	; case 21
  2023  0731  3A01               	skipnz
  2024  0732  1903               	goto	l1167
  2025  0733  2EC6               	xorlw	23^21	; case 23
  2026  0734  3A02               	skipnz
  2027  0735  1903               	goto	l1177
  2028  0736  2EED               	xorlw	26^23	; case 26
  2029  0737  3A0D               	skipnz
  2030  0738  1903               	goto	l1183
  2031  0739  2F04               	goto	l1239
  2032  073A  2FC7               	opt asmopt_pop
  2033                           
  2034                           	
  2035                           l66:	
  2036  073B                     	line	76
  2037                           ;main.c: 76:         switch( estado_senha )
  2038                           	goto	l1239
  2039  073B  2FC7               	line	78
  2040                           ;main.c: 77:         {;main.c: 78:             case 0:
  2041                           	
  2042                           l81:	
  2043  073C                     	line	79
  2044                           ;main.c: 79:                     break;
  2045                           	goto	l1137
  2046  073C  2E3A               	line	80
  2047                           ;main.c: 80:             case 10:
  2048                           	
  2049                           l83:	
  2050  073D                     	line	81
  2051                           	
  2052                           l1193:	
  2053  073D                     ;main.c: 81:                     if( tecla >= '0' && tecla <= '9' )
  2054                           	movlw	low(030h)
  2055  073D  3030               	subwf	(main@tecla),w
  2056  073E  0249               	skipc
  2057  073F  1C03               	goto	u631
  2058  0740  2F42               	goto	u630
  2059  0741  2F43               u631:
  2060  0742                     	goto	l1137
  2061  0742  2E3A               u630:
  2062  0743                     	
  2063                           l1195:	
  2064  0743                     	movlw	low(03Ah)
  2065  0743  303A               	subwf	(main@tecla),w
  2066  0744  0249               	skipnc
  2067  0745  1803               	goto	u641
  2068  0746  2F48               	goto	u640
  2069  0747  2F49               u641:
  2070  0748                     	goto	l1137
  2071  0748  2E3A               u640:
  2072  0749                     	line	82
  2073                           	
  2074                           l1197:	
  2075  0749                     ;main.c: 82:                         estado_senha = 11;
  2076                           	movlw	low(0Bh)
  2077  0749  300B               	movwf	(??_main+0)+0
  2078  074A  00FC               	movf	(??_main+0)+0,w
  2079  074B  087C               	movwf	(main@estado_senha)
  2080  074C  00C7               	goto	l1137
  2081  074D  2E3A               	
  2082                           l84:	
  2083  074E                     	line	83
  2084                           ;main.c: 83:                     break;
  2085                           	goto	l1137
  2086  074E  2E3A               	line	84
  2087                           ;main.c: 84:             case 11:
  2088                           	
  2089                           l85:	
  2090  074F                     	line	85
  2091                           	
  2092                           l1199:	
  2093  074F                     ;main.c: 85:                     password[cont_passwd] = tecla;
  2094                           	movf	(main@tecla),w
  2095  074F  0849               	movwf	(??_main+0)+0
  2096  0750  00FC               	movf	(main@cont_passwd),w
  2097  0751  0845               	addlw	low(main@password|((0x0)<<8))&0ffh
  2098  0752  3E3F               	movwf	fsr0
  2099  0753  0084               	movf	(??_main+0)+0,w
  2100  0754  087C               	bcf	status, 7	;select IRP bank0
  2101  0755  1383               	movwf	indf
  2102  0756  0080               	line	86
  2103                           	
  2104                           l1201:	
  2105  0757                     ;main.c: 86:                     estado_senha = 12;
  2106                           	movlw	low(0Ch)
  2107  0757  300C               	movwf	(??_main+0)+0
  2108  0758  00FC               	movf	(??_main+0)+0,w
  2109  0759  087C               	movwf	(main@estado_senha)
  2110  075A  00C7               	line	87
  2111                           ;main.c: 87:                     break;
  2112                           	goto	l1137
  2113  075B  2E3A               	line	88
  2114                           ;main.c: 88:             case 12:
  2115                           	
  2116                           l86:	
  2117  075C                     	line	89
  2118                           	
  2119                           l1203:	
  2120  075C                     ;main.c: 89:                     if( !tecla )
  2121                           	movf	((main@tecla)),w
  2122  075C  0849               	btfss	status,2
  2123  075D  1D03               	goto	u651
  2124  075E  2F60               	goto	u650
  2125  075F  2F61               u651:
  2126  0760                     	goto	l1137
  2127  0760  2E3A               u650:
  2128  0761                     	line	90
  2129                           	
  2130                           l1205:	
  2131  0761                     ;main.c: 90:                         estado_senha = 13;
  2132                           	movlw	low(0Dh)
  2133  0761  300D               	movwf	(??_main+0)+0
  2134  0762  00FC               	movf	(??_main+0)+0,w
  2135  0763  087C               	movwf	(main@estado_senha)
  2136  0764  00C7               	goto	l1137
  2137  0765  2E3A               	
  2138                           l87:	
  2139  0766                     	line	91
  2140                           ;main.c: 91:                     break;
  2141                           	goto	l1137
  2142  0766  2E3A               	line	92
  2143                           ;main.c: 92:             case 13:
  2144                           	
  2145                           l88:	
  2146  0767                     	line	93
  2147                           	
  2148                           l1207:	
  2149  0767                     ;main.c: 93:                     cont_passwd++;
  2150                           	movlw	low(01h)
  2151  0767  3001               	movwf	(??_main+0)+0
  2152  0768  00FC               	movf	(??_main+0)+0,w
  2153  0769  087C               	addwf	(main@cont_passwd),f
  2154  076A  07C5               	line	94
  2155                           	
  2156                           l1209:	
  2157  076B                     ;main.c: 94:                     if( cont_passwd < 4 )
  2158                           	movlw	low(04h)
  2159  076B  3004               	subwf	(main@cont_passwd),w
  2160  076C  0245               	skipnc
  2161  076D  1803               	goto	u661
  2162  076E  2F70               	goto	u660
  2163  076F  2F71               u661:
  2164  0770                     	goto	l1213
  2165  0770  2F76               u660:
  2166  0771                     	line	95
  2167                           	
  2168                           l1211:	
  2169  0771                     ;main.c: 95:                         estado_senha = 10;
  2170                           	movlw	low(0Ah)
  2171  0771  300A               	movwf	(??_main+0)+0
  2172  0772  00FC               	movf	(??_main+0)+0,w
  2173  0773  087C               	movwf	(main@estado_senha)
  2174  0774  00C7               	goto	l1137
  2175  0775  2E3A               	line	96
  2176                           ;main.c: 96:                     else
  2177                           	
  2178                           l89:	
  2179  0776                     	line	97
  2180                           	
  2181                           l1213:	
  2182  0776                     ;main.c: 97:                         estado_senha = 20;
  2183                           	movlw	low(014h)
  2184  0776  3014               	movwf	(??_main+0)+0
  2185  0777  00FC               	movf	(??_main+0)+0,w
  2186  0778  087C               	movwf	(main@estado_senha)
  2187  0779  00C7               	goto	l1137
  2188  077A  2E3A               	
  2189                           l90:	
  2190  077B                     	line	98
  2191                           ;main.c: 98:                     break;
  2192                           	goto	l1137
  2193  077B  2E3A               	line	99
  2194                           ;main.c: 99:             case 20:
  2195                           	
  2196                           l91:	
  2197  077C                     	line	100
  2198                           ;main.c: 100:                     aux = 1;
  2199                           	clrf	(main@aux)
  2200  077C  01C4               	incf	(main@aux),f
  2201  077D  0AC4               	line	101
  2202                           	
  2203                           l1215:	
  2204  077E                     ;main.c: 101:                     for( i=0; i<4; i++ )
  2205                           	clrf	(main@i)
  2206  077E  01C8               	
  2207                           l1217:	
  2208  077F                     	movlw	low(04h)
  2209  077F  3004               	subwf	(main@i),w
  2210  0780  0248               	skipc
  2211  0781  1C03               	goto	u671
  2212  0782  2F84               	goto	u670
  2213  0783  2F85               u671:
  2214  0784                     	goto	l1221
  2215  0784  2F87               u670:
  2216  0785                     	goto	l1229
  2217  0785  2FB3               	
  2218                           l1219:	
  2219  0786                     	goto	l1229
  2220  0786  2FB3               	
  2221                           l92:	
  2222  0787                     	line	103
  2223                           	
  2224                           l1221:	
  2225  0787                     ;main.c: 102:                     {;main.c: 103:                         if( aux )
  2226                           	movf	((main@aux)),w
  2227  0787  0844               	btfsc	status,2
  2228  0788  1903               	goto	u681
  2229  0789  2F8B               	goto	u680
  2230  078A  2F8C               u681:
  2231  078B                     	goto	l94
  2232  078B  2FA0               u680:
  2233  078C                     	line	104
  2234                           	
  2235                           l1223:	
  2236  078C                     ;main.c: 104:                             aux = password[i] == passwd[i];
  2237                           	movf	(main@i),w
  2238  078C  0848               	addlw	low(main@passwd|((0x0)<<8))&0ffh
  2239  078D  3E3A               	movwf	fsr
  2240  078E  0084               	bcf	status, 7	;select IRP bank0
  2241  078F  1383               	movf	indf,w
  2242  0790  0800               	movwf	(??_main+0)+0
  2243  0791  00FC               	movf	(main@i),w
  2244  0792  0848               	addlw	low(main@password|((0x0)<<8))&0ffh
  2245  0793  3E3F               	movwf	fsr0
  2246  0794  0084               	movf	indf,w
  2247  0795  0800               	xorwf	(??_main+0)+0,w
  2248  0796  067C               	skipnz
  2249  0797  1903               	goto	u691
  2250  0798  2F9A               	goto	u690
  2251  0799  2F9C               u691:
  2252  079A                     	movlw	1
  2253  079A  3001               	goto	u700
  2254  079B  2F9D               u690:
  2255  079C                     	movlw	0
  2256  079C  3000               u700:
  2257  079D                     	movwf	(??_main+1)+0
  2258  079D  00FD               	movf	(??_main+1)+0,w
  2259  079E  087D               	movwf	(main@aux)
  2260  079F  00C4               	
  2261                           l94:	
  2262  07A0                     	line	105
  2263                           ;main.c: 105:                         password[i] = ' ';
  2264                           	movlw	low(020h)
  2265  07A0  3020               	movwf	(??_main+0)+0
  2266  07A1  00FC               	movf	(main@i),w
  2267  07A2  0848               	addlw	low(main@password|((0x0)<<8))&0ffh
  2268  07A3  3E3F               	movwf	fsr0
  2269  07A4  0084               	movf	(??_main+0)+0,w
  2270  07A5  087C               	bcf	status, 7	;select IRP bank0
  2271  07A6  1383               	movwf	indf
  2272  07A7  0080               	line	106
  2273                           	
  2274                           l1225:	
  2275  07A8                     ;main.c: 106:                     }
  2276                           	movlw	low(01h)
  2277  07A8  3001               	movwf	(??_main+0)+0
  2278  07A9  00FC               	movf	(??_main+0)+0,w
  2279  07AA  087C               	addwf	(main@i),f
  2280  07AB  07C8               	
  2281                           l1227:	
  2282  07AC                     	movlw	low(04h)
  2283  07AC  3004               	subwf	(main@i),w
  2284  07AD  0248               	skipc
  2285  07AE  1C03               	goto	u711
  2286  07AF  2FB1               	goto	u710
  2287  07B0  2FB2               u711:
  2288  07B1                     	goto	l1221
  2289  07B1  2F87               u710:
  2290  07B2                     	goto	l1229
  2291  07B2  2FB3               	
  2292                           l93:	
  2293  07B3                     	line	107
  2294                           	
  2295                           l1229:	
  2296  07B3                     ;main.c: 107:                     cont_passwd = 0;
  2297                           	clrf	(main@cont_passwd)
  2298  07B3  01C5               	line	108
  2299                           	
  2300                           l1231:	
  2301  07B4                     ;main.c: 108:                     if( aux )
  2302                           	movf	((main@aux)),w
  2303  07B4  0844               	btfsc	status,2
  2304  07B5  1903               	goto	u721
  2305  07B6  2FB8               	goto	u720
  2306  07B7  2FB9               u721:
  2307  07B8                     	goto	l1235
  2308  07B8  2FBE               u720:
  2309  07B9                     	line	109
  2310                           	
  2311                           l1233:	
  2312  07B9                     ;main.c: 109:                         estado_senha = 30;
  2313                           	movlw	low(01Eh)
  2314  07B9  301E               	movwf	(??_main+0)+0
  2315  07BA  00FC               	movf	(??_main+0)+0,w
  2316  07BB  087C               	movwf	(main@estado_senha)
  2317  07BC  00C7               	goto	l1137
  2318  07BD  2E3A               	line	110
  2319                           ;main.c: 110:                     else
  2320                           	
  2321                           l95:	
  2322  07BE                     	line	111
  2323                           	
  2324                           l1235:	
  2325  07BE                     ;main.c: 111:                         estado_senha = 40;
  2326                           	movlw	low(028h)
  2327  07BE  3028               	movwf	(??_main+0)+0
  2328  07BF  00FC               	movf	(??_main+0)+0,w
  2329  07C0  087C               	movwf	(main@estado_senha)
  2330  07C1  00C7               	goto	l1137
  2331  07C2  2E3A               	
  2332                           l96:	
  2333  07C3                     	line	112
  2334                           ;main.c: 112:                 break;
  2335                           	goto	l1137
  2336  07C3  2E3A               	line	114
  2337                           ;main.c: 114:             case 30:
  2338                           	
  2339                           l97:	
  2340  07C4                     	line	116
  2341                           ;main.c: 116:                 break;
  2342                           	goto	l1137
  2343  07C4  2E3A               	line	117
  2344                           ;main.c: 117:             case 40:
  2345                           	
  2346                           l98:	
  2347  07C5                     	line	119
  2348                           ;main.c: 119:                 break;
  2349                           	goto	l1137
  2350  07C5  2E3A               	line	120
  2351                           	
  2352                           l1237:	
  2353  07C6                     ;main.c: 120:         }
  2354                           	goto	l1137
  2355  07C6  2E3A               	
  2356                           l80:	
  2357  07C7                     	
  2358                           l1239:	
  2359  07C7                     	movf	(main@estado_senha),w
  2360  07C7  0847               	movwf	(??_main+0)+0
  2361  07C8  00FC               	clrf	(??_main+0)+0+1
  2362  07C9  01FD               	; Switch on 2 bytes has been partitioned into a top level switch of size 1, and 1 sub-s
                                 witches
  2363                           ; Switch size 1, requested type "space"
  2364                           ; Number of cases is 1, Range of values is 0 to 0
  2365                           ; switch strategies available:
  2366                           ; Name         Instructions Cycles
  2367                           ; simple_byte            4     3 (average)
  2368                           ; direct_byte           11     8 (fixed)
  2369                           ; jumptable            260     6 (fixed)
  2370                           ;	Chosen strategy is simple_byte
  2371                           
  2372                           	movf 1+(??_main+0)+0,w
  2373  07CA  087D               	opt asmopt_push
  2374                           	opt asmopt_off
  2375                           	xorlw	0^0	; case 0
  2376  07CB  3A00               	skipnz
  2377  07CC  1903               	goto	l1315
  2378  07CD  2FCF               	goto	l1137
  2379  07CE  2E3A               	opt asmopt_pop
  2380                           	
  2381                           l1315:	
  2382  07CF                     ; Switch size 1, requested type "space"
  2383                           ; Number of cases is 8, Range of values is 0 to 40
  2384                           ; switch strategies available:
  2385                           ; Name         Instructions Cycles
  2386                           ; simple_byte           25    13 (average)
  2387                           ; direct_byte          131     8 (fixed)
  2388                           ; jumptable            260     6 (fixed)
  2389                           ;	Chosen strategy is simple_byte
  2390                           
  2391                           	movf 0+(??_main+0)+0,w
  2392  07CF  087C               	opt asmopt_push
  2393                           	opt asmopt_off
  2394                           	xorlw	0^0	; case 0
  2395  07D0  3A00               	skipnz
  2396  07D1  1903               	goto	l1137
  2397  07D2  2E3A               	xorlw	10^0	; case 10
  2398  07D3  3A0A               	skipnz
  2399  07D4  1903               	goto	l1193
  2400  07D5  2F3D               	xorlw	11^10	; case 11
  2401  07D6  3A01               	skipnz
  2402  07D7  1903               	goto	l1199
  2403  07D8  2F4F               	xorlw	12^11	; case 12
  2404  07D9  3A07               	skipnz
  2405  07DA  1903               	goto	l1203
  2406  07DB  2F5C               	xorlw	13^12	; case 13
  2407  07DC  3A01               	skipnz
  2408  07DD  1903               	goto	l1207
  2409  07DE  2F67               	xorlw	20^13	; case 20
  2410  07DF  3A19               	skipnz
  2411  07E0  1903               	goto	l91
  2412  07E1  2F7C               	xorlw	30^20	; case 30
  2413  07E2  3A0A               	skipnz
  2414  07E3  1903               	goto	l1137
  2415  07E4  2E3A               	xorlw	40^30	; case 40
  2416  07E5  3A36               	skipnz
  2417  07E6  1903               	goto	l1137
  2418  07E7  2E3A               	goto	l1137
  2419  07E8  2E3A               	opt asmopt_pop
  2420                           
  2421                           	
  2422                           l82:	
  2423  07E9                     	goto	l1137
  2424  07E9  2E3A               	line	121
  2425                           ;main.c: 121:     }
  2426                           	
  2427                           l99:	
  2428  07EA                     	goto	l1137
  2429  07EA  2E3A               	
  2430                           l100:	
  2431  07EB                     	line	123
  2432                           ;main.c: 122:     return;
  2433                           	
  2434                           l101:	
  2435  07EB                     	global	start
  2436                           	ljmp	start
  2437  07EB  120A  118A  2800   	opt stack 0
  2438                           GLOBAL	__end_of_main
  2439                           	__end_of_main:
  2440  07EE                     	signat	_main,89
  2441                           	global	_teclado_init
  2442                           
  2443 ;; *************** function _teclado_init *****************
  2444 ;; Defined at:
  2445 ;;		line 7 in file "teclado.c"
  2446 ;; Parameters:    Size  Location     Type
  2447 ;;		None
  2448 ;; Auto vars:     Size  Location     Type
  2449 ;;		None
  2450 ;; Return value:  Size  Location     Type
  2451 ;;                  1    wreg      void 
  2452 ;; Registers used:
  2453 ;;		wreg, status,2
  2454 ;; Tracked objects:
  2455 ;;		On entry : 0/0
  2456 ;;		On exit  : 0/0
  2457 ;;		Unchanged: 0/0
  2458 ;; Data sizes:     COMMON   BANK0   BANK1   BANK3   BANK2
  2459 ;;      Params:         0       0       0       0       0
  2460 ;;      Locals:         0       0       0       0       0
  2461 ;;      Temps:          0       0       0       0       0
  2462 ;;      Totals:         0       0       0       0       0
  2463 ;;Total ram usage:        0 bytes
  2464 ;; Hardware stack levels used:    1
  2465 ;; This function calls:
  2466 ;;		Nothing
  2467 ;; This function is called by:
  2468 ;;		_main
  2469 ;; This function uses a non-reentrant model
  2470 ;;
  2471                           psect	text1,local,class=CODE,delta=2,merge=1,group=0
  2472                           	file	"teclado.c"
  2473                           	line	7
  2474                           global __ptext1
  2475                           __ptext1:	;psect for function _teclado_init
  2476  042A                     psect	text1
  2477                           	file	"teclado.c"
  2478                           	line	7
  2479                           	global	__size_of_teclado_init
  2480                           	__size_of_teclado_init	equ	__end_of_teclado_init-_teclado_init
  2481  000B                     	
  2482                           _teclado_init:	
  2483  042A                     ;incstack = 0
  2484                           	opt	stack 7
  2485                           ; Regs used in _teclado_init: [wreg+status,2]
  2486                           	line	9
  2487                           	
  2488                           l1087:	
  2489  042A                     ;teclado.c: 9:         ANSELH = 0;
  2490                           	bsf	status, 5	;RP0=1, select bank3
  2491  042A  1683               	bsf	status, 6	;RP1=1, select bank3
  2492  042B  1703               	clrf	(393)^0180h	;volatile
  2493  042C  0189               	line	10
  2494                           	
  2495                           l1089:	
  2496  042D                     ;teclado.c: 10:         TRISB = 0xF0;
  2497                           	movlw	low(0F0h)
  2498  042D  30F0               	bsf	status, 5	;RP0=1, select bank1
  2499  042E  1683               	bcf	status, 6	;RP1=0, select bank1
  2500  042F  1303               	movwf	(134)^080h	;volatile
  2501  0430  0086               	line	11
  2502                           	
  2503                           l1091:	
  2504  0431                     ;teclado.c: 11:         PORTB = 0;
  2505                           	bcf	status, 5	;RP0=0, select bank0
  2506  0431  1283               	bcf	status, 6	;RP1=0, select bank0
  2507  0432  1303               	clrf	(6)	;volatile
  2508  0433  0186               	line	12
  2509                           	
  2510                           l110:	
  2511  0434                     	return
  2512  0434  0008               	opt stack 0
  2513                           GLOBAL	__end_of_teclado_init
  2514                           	__end_of_teclado_init:
  2515  0435                     	signat	_teclado_init,89
  2516                           	global	_teclado
  2517                           
  2518 ;; *************** function _teclado *****************
  2519 ;; Defined at:
  2520 ;;		line 22 in file "teclado.c"
  2521 ;; Parameters:    Size  Location     Type
  2522 ;;		None
  2523 ;; Auto vars:     Size  Location     Type
  2524 ;;  l               1    8[COMMON] unsigned char 
  2525 ;;  c               1    7[COMMON] unsigned char 
  2526 ;;  tecla           1    6[COMMON] unsigned char 
  2527 ;; Return value:  Size  Location     Type
  2528 ;;                  2    0[COMMON] int 
  2529 ;; Registers used:
  2530 ;;		wreg, fsr0l, fsr0h, status,2, status,0
  2531 ;; Tracked objects:
  2532 ;;		On entry : 0/0
  2533 ;;		On exit  : 0/0
  2534 ;;		Unchanged: 0/0
  2535 ;; Data sizes:     COMMON   BANK0   BANK1   BANK3   BANK2
  2536 ;;      Params:         2       0       0       0       0
  2537 ;;      Locals:         3       0       0       0       0
  2538 ;;      Temps:          4       0       0       0       0
  2539 ;;      Totals:         9       0       0       0       0
  2540 ;;Total ram usage:        9 bytes
  2541 ;; Hardware stack levels used:    1
  2542 ;; This function calls:
  2543 ;;		Nothing
  2544 ;; This function is called by:
  2545 ;;		_main
  2546 ;; This function uses a non-reentrant model
  2547 ;;
  2548                           psect	text2,local,class=CODE,delta=2,merge=1,group=0
  2549                           	line	22
  2550                           global __ptext2
  2551                           __ptext2:	;psect for function _teclado
  2552  051A                     psect	text2
  2553                           	file	"teclado.c"
  2554                           	line	22
  2555                           	global	__size_of_teclado
  2556                           	__size_of_teclado	equ	__end_of_teclado-_teclado
  2557  0064                     	
  2558                           _teclado:	
  2559  051A                     ;incstack = 0
  2560                           	opt	stack 7
  2561                           ; Regs used in _teclado: [wreg-fsr0h+status,2+status,0]
  2562                           	line	24
  2563                           	
  2564                           l1093:	
  2565  051A                     ;teclado.c: 24:         char tecla = 0;
  2566                           	clrf	(teclado@tecla)
  2567  051A  01F6               	line	28
  2568                           ;teclado.c: 26:         char c,l;;teclado.c: 28:         for (l=0; l<4; l++)
  2569                           	clrf	(teclado@l)
  2570  051B  01F8               	
  2571                           l1095:	
  2572  051C                     	movlw	low(04h)
  2573  051C  3004               	subwf	(teclado@l),w
  2574  051D  0278               	skipc
  2575  051E  1C03               	goto	u481
  2576  051F  2D21               	goto	u480
  2577  0520  2D22               u481:
  2578  0521                     	goto	l1099
  2579  0521  2D24               u480:
  2580  0522                     	goto	l1119
  2581  0522  2D75               	
  2582                           l1097:	
  2583  0523                     	goto	l1119
  2584  0523  2D75               	
  2585                           l115:	
  2586  0524                     	line	30
  2587                           	
  2588                           l1099:	
  2589  0524                     ;teclado.c: 29:         {;teclado.c: 30:         PORTB = 0x01<<l;
  2590                           	movlw	low(01h)
  2591  0524  3001               	movwf	(??_teclado+0)+0
  2592  0525  00F2               	incf	(teclado@l),w
  2593  0526  0A78               	goto	u494
  2594  0527  2D2A               u495:
  2595  0528                     	clrc
  2596  0528  1003               	rlf	(??_teclado+0)+0,f
  2597  0529  0DF2               u494:
  2598  052A                     	addlw	-1
  2599  052A  3EFF               	skipz
  2600  052B  1D03               	goto	u495
  2601  052C  2D28               	movf	0+(??_teclado+0)+0,w
  2602  052D  0872               	bcf	status, 5	;RP0=0, select bank0
  2603  052E  1283               	bcf	status, 6	;RP1=0, select bank0
  2604  052F  1303               	movwf	(6)	;volatile
  2605  0530  0086               	line	31
  2606                           	
  2607                           l1101:	
  2608  0531                     ;teclado.c: 31:             for (c=0; c<4; c++)
  2609                           	clrf	(teclado@c)
  2610  0531  01F7               	
  2611                           l1103:	
  2612  0532                     	movlw	low(04h)
  2613  0532  3004               	subwf	(teclado@c),w
  2614  0533  0277               	skipc
  2615  0534  1C03               	goto	u501
  2616  0535  2D37               	goto	u500
  2617  0536  2D38               u501:
  2618  0537                     	goto	l1107
  2619  0537  2D3A               u500:
  2620  0538                     	goto	l1115
  2621  0538  2D6A               	
  2622                           l1105:	
  2623  0539                     	goto	l1115
  2624  0539  2D6A               	
  2625                           l117:	
  2626  053A                     	line	33
  2627                           	
  2628                           l1107:	
  2629  053A                     ;teclado.c: 32:             {;teclado.c: 33:                 if( PORTB & 0x10<<c )
  2630                           	movlw	low(010h)
  2631  053A  3010               	movwf	(??_teclado+0)+0
  2632  053B  00F2               	incf	(teclado@c),w
  2633  053C  0A77               	goto	u514
  2634  053D  2D40               u515:
  2635  053E                     	clrc
  2636  053E  1003               	rlf	(??_teclado+0)+0,f
  2637  053F  0DF2               u514:
  2638  0540                     	addlw	-1
  2639  0540  3EFF               	skipz
  2640  0541  1D03               	goto	u515
  2641  0542  2D3E               	movf	0+(??_teclado+0)+0,w
  2642  0543  0872               	andwf	(6),w	;volatile
  2643  0544  0506               	btfsc	status,2
  2644  0545  1903               	goto	u521
  2645  0546  2D48               	goto	u520
  2646  0547  2D49               u521:
  2647  0548                     	goto	l1111
  2648  0548  2D5F               u520:
  2649  0549                     	line	34
  2650                           	
  2651                           l1109:	
  2652  0549                     ;teclado.c: 34:                tecla = tabTeclado [l][c];
  2653                           	movf	(teclado@l),w
  2654  0549  0878               	movwf	(??_teclado+0)+0
  2655  054A  00F2               	movlw	02h
  2656  054B  3002               u535:
  2657  054C                     	clrc
  2658  054C  1003               	rlf	(??_teclado+0)+0,f
  2659  054D  0DF2               	addlw	-1
  2660  054E  3EFF               	skipz
  2661  054F  1D03               	goto	u535
  2662  0550  2D4C               	movlw	(low(_tabTeclado|((0x0)<<8)))&0ffh
  2663  0551  3020               	addwf	0+(??_teclado+0)+0,w
  2664  0552  0772               	movwf	(??_teclado+1)+0
  2665  0553  00F3               	movf	(teclado@c),w
  2666  0554  0877               	addwf	0+(??_teclado+1)+0,w
  2667  0555  0773               	movwf	(??_teclado+2)+0
  2668  0556  00F4               	movf	0+(??_teclado+2)+0,w
  2669  0557  0874               	movwf	fsr0
  2670  0558  0084               	bcf	status, 7	;select IRP bank0
  2671  0559  1383               	movf	indf,w
  2672  055A  0800               	movwf	(??_teclado+3)+0
  2673  055B  00F5               	movf	(??_teclado+3)+0,w
  2674  055C  0875               	movwf	(teclado@tecla)
  2675  055D  00F6               	goto	l1111
  2676  055E  2D5F               	
  2677                           l119:	
  2678  055F                     	line	35
  2679                           	
  2680                           l1111:	
  2681  055F                     ;teclado.c: 35:              }
  2682                           	movlw	low(01h)
  2683  055F  3001               	movwf	(??_teclado+0)+0
  2684  0560  00F2               	movf	(??_teclado+0)+0,w
  2685  0561  0872               	addwf	(teclado@c),f
  2686  0562  07F7               	
  2687                           l1113:	
  2688  0563                     	movlw	low(04h)
  2689  0563  3004               	subwf	(teclado@c),w
  2690  0564  0277               	skipc
  2691  0565  1C03               	goto	u541
  2692  0566  2D68               	goto	u540
  2693  0567  2D69               u541:
  2694  0568                     	goto	l1107
  2695  0568  2D3A               u540:
  2696  0569                     	goto	l1115
  2697  0569  2D6A               	
  2698                           l118:	
  2699  056A                     	line	36
  2700                           	
  2701                           l1115:	
  2702  056A                     ;teclado.c: 36:         }
  2703                           	movlw	low(01h)
  2704  056A  3001               	movwf	(??_teclado+0)+0
  2705  056B  00F2               	movf	(??_teclado+0)+0,w
  2706  056C  0872               	addwf	(teclado@l),f
  2707  056D  07F8               	
  2708                           l1117:	
  2709  056E                     	movlw	low(04h)
  2710  056E  3004               	subwf	(teclado@l),w
  2711  056F  0278               	skipc
  2712  0570  1C03               	goto	u551
  2713  0571  2D73               	goto	u550
  2714  0572  2D74               u551:
  2715  0573                     	goto	l1099
  2716  0573  2D24               u550:
  2717  0574                     	goto	l1119
  2718  0574  2D75               	
  2719                           l116:	
  2720  0575                     	line	37
  2721                           	
  2722                           l1119:	
  2723  0575                     ;teclado.c: 37:                     return ( tecla );
  2724                           	movf	(teclado@tecla),w
  2725  0575  0876               	movwf	(??_teclado+0)+0
  2726  0576  00F2               	clrf	(??_teclado+0)+0+1
  2727  0577  01F3               	movf	0+(??_teclado+0)+0,w
  2728  0578  0872               	movwf	(?_teclado)
  2729  0579  00F0               	movf	1+(??_teclado+0)+0,w
  2730  057A  0873               	movwf	(?_teclado+1)
  2731  057B  00F1               	goto	l120
  2732  057C  2D7D               	
  2733                           l1121:	
  2734  057D                     	line	39
  2735                           	
  2736                           l120:	
  2737  057D                     	return
  2738  057D  0008               	opt stack 0
  2739                           GLOBAL	__end_of_teclado
  2740                           	__end_of_teclado:
  2741  057E                     	signat	_teclado,90
  2742                           	global	_dispLCD_init
  2743                           
  2744 ;; *************** function _dispLCD_init *****************
  2745 ;; Defined at:
  2746 ;;		line 137 in file "Display_LCD.c"
  2747 ;; Parameters:    Size  Location     Type
  2748 ;;		None
  2749 ;; Auto vars:     Size  Location     Type
  2750 ;;		None
  2751 ;; Return value:  Size  Location     Type
  2752 ;;                  1    wreg      void 
  2753 ;; Registers used:
  2754 ;;		wreg, status,2, status,0, pclath, cstack
  2755 ;; Tracked objects:
  2756 ;;		On entry : 0/0
  2757 ;;		On exit  : 0/0
  2758 ;;		Unchanged: 0/0
  2759 ;; Data sizes:     COMMON   BANK0   BANK1   BANK3   BANK2
  2760 ;;      Params:         0       0       0       0       0
  2761 ;;      Locals:         0       0       0       0       0
  2762 ;;      Temps:          0       0       0       0       0
  2763 ;;      Totals:         0       0       0       0       0
  2764 ;;Total ram usage:        0 bytes
  2765 ;; Hardware stack levels used:    1
  2766 ;; Hardware stack levels required when called:    1
  2767 ;; This function calls:
  2768 ;;		_dispLCD_instReg
  2769 ;; This function is called by:
  2770 ;;		_main
  2771 ;; This function uses a non-reentrant model
  2772 ;;
  2773                           psect	text3,local,class=CODE,delta=2,merge=1,group=0
  2774                           	file	"Display_LCD.c"
  2775                           	line	137
  2776                           global __ptext3
  2777                           __ptext3:	;psect for function _dispLCD_init
  2778  048C                     psect	text3
  2779                           	file	"Display_LCD.c"
  2780                           	line	137
  2781                           	global	__size_of_dispLCD_init
  2782                           	__size_of_dispLCD_init	equ	__end_of_dispLCD_init-_dispLCD_init
  2783  0024                     	
  2784                           _dispLCD_init:	
  2785  048C                     ;incstack = 0
  2786                           	opt	stack 6
  2787                           ; Regs used in _dispLCD_init: [wreg+status,2+status,0+pclath+cstack]
  2788                           	line	139
  2789                           	
  2790                           l1065:	
  2791  048C                     ;Display_LCD.c: 139:     TRISDbits.TRISD2 = 0;
  2792                           	bsf	status, 5	;RP0=1, select bank1
  2793  048C  1683               	bcf	status, 6	;RP1=0, select bank1
  2794  048D  1303               	bcf	(136)^080h,2	;volatile
  2795  048E  1108               	line	140
  2796                           ;Display_LCD.c: 140:     TRISDbits.TRISD3 = 0;
  2797                           	bcf	(136)^080h,3	;volatile
  2798  048F  1188               	line	142
  2799                           ;Display_LCD.c: 142:     TRISDbits.TRISD4 = 0;
  2800                           	bcf	(136)^080h,4	;volatile
  2801  0490  1208               	line	143
  2802                           ;Display_LCD.c: 143:     TRISDbits.TRISD5 = 0;
  2803                           	bcf	(136)^080h,5	;volatile
  2804  0491  1288               	line	144
  2805                           ;Display_LCD.c: 144:     TRISDbits.TRISD6 = 0;
  2806                           	bcf	(136)^080h,6	;volatile
  2807  0492  1308               	line	145
  2808                           ;Display_LCD.c: 145:     TRISDbits.TRISD7 = 0;
  2809                           	bcf	(136)^080h,7	;volatile
  2810  0493  1388               	line	147
  2811                           ;Display_LCD.c: 147:     LCDbits.EN = 1;
  2812                           	bcf	status, 5	;RP0=0, select bank0
  2813  0494  1283               	bcf	status, 6	;RP1=0, select bank0
  2814  0495  1303               	bsf	(8),3	;volatile
  2815  0496  1588               	line	148
  2816                           	
  2817                           l1067:	
  2818  0497                     ;Display_LCD.c: 148:     dispLCD_instReg( 0x20|0x00|0x08);
  2819                           	movlw	low(028h)
  2820  0497  3028               	fcall	_dispLCD_instReg
  2821  0498  120A  118A  257E  120A  118A  	line	149
  2822                           ;Display_LCD.c: 149:     dispLCD_instReg( 0x08|0x04|0x00|0x00 );
  2823                           	movlw	low(0Ch)
  2824  049D  300C               	fcall	_dispLCD_instReg
  2825  049E  120A  118A  257E  120A  118A  	line	150
  2826                           ;Display_LCD.c: 150:     dispLCD_instReg( 0x01 );
  2827                           	movlw	low(01h)
  2828  04A3  3001               	fcall	_dispLCD_instReg
  2829  04A4  120A  118A  257E  120A  118A  	line	151
  2830                           ;Display_LCD.c: 151:     dispLCD_instReg( 0x02 );
  2831                           	movlw	low(02h)
  2832  04A9  3002               	fcall	_dispLCD_instReg
  2833  04AA  120A  118A  257E  120A  118A  	line	152
  2834                           	
  2835                           l27:	
  2836  04AF                     	return
  2837  04AF  0008               	opt stack 0
  2838                           GLOBAL	__end_of_dispLCD_init
  2839                           	__end_of_dispLCD_init:
  2840  04B0                     	signat	_dispLCD_init,89
  2841                           	global	_dispLCD
  2842                           
  2843 ;; *************** function _dispLCD *****************
  2844 ;; Defined at:
  2845 ;;		line 155 in file "Display_LCD.c"
  2846 ;; Parameters:    Size  Location     Type
  2847 ;;  lin             1    wreg     unsigned char 
  2848 ;;  col             1    6[COMMON] unsigned char 
  2849 ;;  str             2    7[COMMON] PTR const unsigned char 
  2850 ;;		 -> STR_9(17), STR_8(17), STR_7(17), STR_6(17), 
  2851 ;;		 -> STR_5(17), STR_4(17), STR_3(17), STR_2(17), 
  2852 ;;		 -> STR_1(17), main@password(5), 
  2853 ;; Auto vars:     Size  Location     Type
  2854 ;;  lin             1   11[COMMON] unsigned char 
  2855 ;;  pos             1   10[COMMON] unsigned char 
  2856 ;; Return value:  Size  Location     Type
  2857 ;;                  1    wreg      void 
  2858 ;; Registers used:
  2859 ;;		wreg, fsr0l, fsr0h, status,2, status,0, btemp+1, pclath, cstack
  2860 ;; Tracked objects:
  2861 ;;		On entry : 0/0
  2862 ;;		On exit  : 0/0
  2863 ;;		Unchanged: 0/0
  2864 ;; Data sizes:     COMMON   BANK0   BANK1   BANK3   BANK2
  2865 ;;      Params:         3       0       0       0       0
  2866 ;;      Locals:         2       0       0       0       0
  2867 ;;      Temps:          1       0       0       0       0
  2868 ;;      Totals:         6       0       0       0       0
  2869 ;;Total ram usage:        6 bytes
  2870 ;; Hardware stack levels used:    1
  2871 ;; Hardware stack levels required when called:    2
  2872 ;; This function calls:
  2873 ;;		_dispLCD_dataReg
  2874 ;;		_dispLCD_lincol
  2875 ;; This function is called by:
  2876 ;;		_main
  2877 ;; This function uses a non-reentrant model
  2878 ;;
  2879                           psect	text4,local,class=CODE,delta=2,merge=1,group=0
  2880                           	line	155
  2881                           global __ptext4
  2882                           __ptext4:	;psect for function _dispLCD
  2883  04DF                     psect	text4
  2884                           	file	"Display_LCD.c"
  2885                           	line	155
  2886                           	global	__size_of_dispLCD
  2887                           	__size_of_dispLCD	equ	__end_of_dispLCD-_dispLCD
  2888  003B                     	
  2889                           _dispLCD:	
  2890  04DF                     ;incstack = 0
  2891                           	opt	stack 5
  2892                           ; Regs used in _dispLCD: [wreg-fsr0h+status,2+status,0+btemp+1+pclath+cstack]
  2893                           ;dispLCD@lin stored from wreg
  2894                           	movwf	(dispLCD@lin)
  2895  04DF  00FB               	line	157
  2896                           	
  2897                           l1069:	
  2898  04E0                     ;Display_LCD.c: 155: void dispLCD( unsigned char lin, unsigned char col, const char * st
                                 r );Display_LCD.c: 156: {;Display_LCD.c: 157:     char pos = col;
  2899                           	movf	(dispLCD@col),w
  2900  04E0  0876               	movwf	(??_dispLCD+0)+0
  2901  04E1  00F9               	movf	(??_dispLCD+0)+0,w
  2902  04E2  0879               	movwf	(dispLCD@pos)
  2903  04E3  00FA               	line	158
  2904                           	
  2905                           l1071:	
  2906  04E4                     ;Display_LCD.c: 158:     dispLCD_lincol( lin, col );
  2907                           	movf	(dispLCD@col),w
  2908  04E4  0876               	movwf	(??_dispLCD+0)+0
  2909  04E5  00F9               	movf	(??_dispLCD+0)+0,w
  2910  04E6  0879               	movwf	(dispLCD_lincol@col)
  2911  04E7  00F3               	movf	(dispLCD@lin),w
  2912  04E8  087B               	fcall	_dispLCD_lincol
  2913  04E9  120A  118A  2435  120A  118A  	line	160
  2914                           ;Display_LCD.c: 160:     while( *str )
  2915                           	goto	l1079
  2916  04EE  2D08               	
  2917                           l31:	
  2918  04EF                     	line	162
  2919                           	
  2920                           l1073:	
  2921  04EF                     ;Display_LCD.c: 161:     {;Display_LCD.c: 162:         dispLCD_dataReg( *str );
  2922                           	movf	(dispLCD@str+1),w
  2923  04EF  0878               	bcf	status, 5	;RP0=0, select bank0
  2924  04F0  1283               	bcf	status, 6	;RP1=0, select bank0
  2925  04F1  1303               	movwf	btemp+1
  2926  04F2  00FF               	movf	(dispLCD@str),w
  2927  04F3  0877               	movwf	fsr0
  2928  04F4  0084               	fcall	stringtab
  2929  04F5  120A  118A  2003  120A  118A  	fcall	_dispLCD_dataReg
  2930  04FA  120A  118A  24B0  120A  118A  	line	163
  2931                           	
  2932                           l1075:	
  2933  04FF                     ;Display_LCD.c: 163:         ++str;
  2934                           	movlw	01h
  2935  04FF  3001               	addwf	(dispLCD@str),f
  2936  0500  07F7               	skipnc
  2937  0501  1803               	incf	(dispLCD@str+1),f
  2938  0502  0AF8               	line	164
  2939                           	
  2940                           l1077:	
  2941  0503                     ;Display_LCD.c: 164:         ++pos;
  2942                           	movlw	low(01h)
  2943  0503  3001               	movwf	(??_dispLCD+0)+0
  2944  0504  00F9               	movf	(??_dispLCD+0)+0,w
  2945  0505  0879               	addwf	(dispLCD@pos),f
  2946  0506  07FA               	goto	l1079
  2947  0507  2D08               	line	165
  2948                           ;Display_LCD.c: 165:     }
  2949                           	
  2950                           l30:	
  2951  0508                     	line	160
  2952                           	
  2953                           l1079:	
  2954  0508                     ;Display_LCD.c: 160:     while( *str )
  2955                           	movf	(dispLCD@str+1),w
  2956  0508  0878               	bcf	status, 5	;RP0=0, select bank0
  2957  0509  1283               	bcf	status, 6	;RP1=0, select bank0
  2958  050A  1303               	movwf	btemp+1
  2959  050B  00FF               	movf	(dispLCD@str),w
  2960  050C  0877               	movwf	fsr0
  2961  050D  0084               	fcall	stringtab
  2962  050E  120A  118A  2003  120A  118A  	xorlw	0
  2963  0513  3A00               	skipz
  2964  0514  1D03               	goto	u461
  2965  0515  2D17               	goto	u460
  2966  0516  2D18               u461:
  2967  0517                     	goto	l1073
  2968  0517  2CEF               u460:
  2969  0518                     	goto	l33
  2970  0518  2D19               	
  2971                           l32:	
  2972  0519                     	line	166
  2973                           	
  2974                           l33:	
  2975  0519                     	return
  2976  0519  0008               	opt stack 0
  2977                           GLOBAL	__end_of_dispLCD
  2978                           	__end_of_dispLCD:
  2979  051A                     	signat	_dispLCD,12409
  2980                           	global	_dispLCD_lincol
  2981                           
  2982 ;; *************** function _dispLCD_lincol *****************
  2983 ;; Defined at:
  2984 ;;		line 131 in file "Display_LCD.c"
  2985 ;; Parameters:    Size  Location     Type
  2986 ;;  lin             1    wreg     unsigned char 
  2987 ;;  col             1    3[COMMON] unsigned char 
  2988 ;; Auto vars:     Size  Location     Type
  2989 ;;  lin             1    5[COMMON] unsigned char 
  2990 ;; Return value:  Size  Location     Type
  2991 ;;                  1    wreg      void 
  2992 ;; Registers used:
  2993 ;;		wreg, status,2, status,0, pclath, cstack
  2994 ;; Tracked objects:
  2995 ;;		On entry : 0/0
  2996 ;;		On exit  : 0/0
  2997 ;;		Unchanged: 0/0
  2998 ;; Data sizes:     COMMON   BANK0   BANK1   BANK3   BANK2
  2999 ;;      Params:         1       0       0       0       0
  3000 ;;      Locals:         1       0       0       0       0
  3001 ;;      Temps:          1       0       0       0       0
  3002 ;;      Totals:         3       0       0       0       0
  3003 ;;Total ram usage:        3 bytes
  3004 ;; Hardware stack levels used:    1
  3005 ;; Hardware stack levels required when called:    1
  3006 ;; This function calls:
  3007 ;;		_dispLCD_instReg
  3008 ;; This function is called by:
  3009 ;;		_dispLCD
  3010 ;; This function uses a non-reentrant model
  3011 ;;
  3012                           psect	text5,local,class=CODE,delta=2,merge=1,group=0
  3013                           	line	131
  3014                           global __ptext5
  3015                           __ptext5:	;psect for function _dispLCD_lincol
  3016  0435                     psect	text5
  3017                           	file	"Display_LCD.c"
  3018                           	line	131
  3019                           	global	__size_of_dispLCD_lincol
  3020                           	__size_of_dispLCD_lincol	equ	__end_of_dispLCD_lincol-_dispLCD_lincol
  3021  0013                     	
  3022                           _dispLCD_lincol:	
  3023  0435                     ;incstack = 0
  3024                           	opt	stack 5
  3025                           ; Regs used in _dispLCD_lincol: [wreg+status,2+status,0+pclath+cstack]
  3026                           ;dispLCD_lincol@lin stored from wreg
  3027                           	movwf	(dispLCD_lincol@lin)
  3028  0435  00F5               	line	133
  3029                           	
  3030                           l1063:	
  3031  0436                     ;Display_LCD.c: 131: void dispLCD_lincol( unsigned char lin, unsigned char col);Display_
                                 LCD.c: 132: {;Display_LCD.c: 133:     dispLCD_instReg( (0x80+((0x40 * lin) + (col + 0x00
                                 ) & 0x7F)) );
  3032                           	movf	(dispLCD_lincol@lin),w
  3033  0436  0875               	movwf	(??_dispLCD_lincol+0)+0
  3034  0437  00F4               	movlw	06h
  3035  0438  3006               u455:
  3036  0439                     	clrc
  3037  0439  1003               	rlf	(??_dispLCD_lincol+0)+0,f
  3038  043A  0DF4               	addlw	-1
  3039  043B  3EFF               	skipz
  3040  043C  1D03               	goto	u455
  3041  043D  2C39               	movf	(dispLCD_lincol@col),w
  3042  043E  0873               	addwf	0+(??_dispLCD_lincol+0)+0,w
  3043  043F  0774               	andlw	07Fh
  3044  0440  397F               	addlw	080h
  3045  0441  3E80               	fcall	_dispLCD_instReg
  3046  0442  120A  118A  257E  120A  118A  	line	134
  3047                           	
  3048                           l24:	
  3049  0447                     	return
  3050  0447  0008               	opt stack 0
  3051                           GLOBAL	__end_of_dispLCD_lincol
  3052                           	__end_of_dispLCD_lincol:
  3053  0448                     	signat	_dispLCD_lincol,8313
  3054                           	global	_dispLCD_instReg
  3055                           
  3056 ;; *************** function _dispLCD_instReg *****************
  3057 ;; Defined at:
  3058 ;;		line 82 in file "Display_LCD.c"
  3059 ;; Parameters:    Size  Location     Type
  3060 ;;  i               1    wreg     unsigned char 
  3061 ;; Auto vars:     Size  Location     Type
  3062 ;;  i               1    2[COMMON] unsigned char 
  3063 ;; Return value:  Size  Location     Type
  3064 ;;                  1    wreg      void 
  3065 ;; Registers used:
  3066 ;;		wreg, status,2, status,0
  3067 ;; Tracked objects:
  3068 ;;		On entry : 0/0
  3069 ;;		On exit  : 0/0
  3070 ;;		Unchanged: 0/0
  3071 ;; Data sizes:     COMMON   BANK0   BANK1   BANK3   BANK2
  3072 ;;      Params:         0       0       0       0       0
  3073 ;;      Locals:         1       0       0       0       0
  3074 ;;      Temps:          2       0       0       0       0
  3075 ;;      Totals:         3       0       0       0       0
  3076 ;;Total ram usage:        3 bytes
  3077 ;; Hardware stack levels used:    1
  3078 ;; This function calls:
  3079 ;;		Nothing
  3080 ;; This function is called by:
  3081 ;;		_dispLCD_lincol
  3082 ;;		_dispLCD_init
  3083 ;;		_dispLCD_clr
  3084 ;; This function uses a non-reentrant model
  3085 ;;
  3086                           psect	text6,local,class=CODE,delta=2,merge=1,group=0
  3087                           	line	82
  3088                           global __ptext6
  3089                           __ptext6:	;psect for function _dispLCD_instReg
  3090  057E                     psect	text6
  3091                           	file	"Display_LCD.c"
  3092                           	line	82
  3093                           	global	__size_of_dispLCD_instReg
  3094                           	__size_of_dispLCD_instReg	equ	__end_of_dispLCD_instReg-_dispLCD_instReg
  3095  0080                     	
  3096                           _dispLCD_instReg:	
  3097  057E                     ;incstack = 0
  3098                           	opt	stack 6
  3099                           ; Regs used in _dispLCD_instReg: [wreg+status,2+status,0]
  3100                           ;dispLCD_instReg@i stored from wreg
  3101                           	movwf	(dispLCD_instReg@i)
  3102  057E  00F2               	line	84
  3103                           	
  3104                           l1003:	
  3105  057F                     ;Display_LCD.c: 82: void dispLCD_instReg( unsigned char i );Display_LCD.c: 83: {;Display
                                 _LCD.c: 84:     LCDbits.RS = 0;
  3106                           	bcf	status, 5	;RP0=0, select bank0
  3107  057F  1283               	bcf	status, 6	;RP1=0, select bank0
  3108  0580  1303               	bcf	(8),2	;volatile
  3109  0581  1108               	line	85
  3110                           	
  3111                           l1005:	
  3112  0582                     ;Display_LCD.c: 85:     LCDbits.BUS = (i>>4);
  3113                           	movf	(dispLCD_instReg@i),w
  3114  0582  0872               	movwf	(??_dispLCD_instReg+0)+0
  3115  0583  00F0               	movlw	04h
  3116  0584  3004               u375:
  3117  0585                     	clrc
  3118  0585  1003               	rrf	(??_dispLCD_instReg+0)+0,f
  3119  0586  0CF0               	addlw	-1
  3120  0587  3EFF               	skipz
  3121  0588  1D03               	goto	u375
  3122  0589  2D85               	movf	0+(??_dispLCD_instReg+0)+0,w
  3123  058A  0870               	movwf	(??_dispLCD_instReg+1)+0
  3124  058B  00F1               	swapf	(??_dispLCD_instReg+1)+0,f
  3125  058C  0EF1               	movf	(8),w	;volatile
  3126  058D  0808               	xorwf	(??_dispLCD_instReg+1)+0,w
  3127  058E  0671               	andlw	not (((1<<4)-1)<<4)
  3128  058F  390F               	xorwf	(??_dispLCD_instReg+1)+0,w
  3129  0590  0671               	movwf	(8)	;volatile
  3130  0591  0088               	line	87
  3131                           	
  3132                           l1007:	
  3133  0592                     ;Display_LCD.c: 87:     LCDbits.EN = 0;
  3134                           	bcf	(8),3	;volatile
  3135  0592  1188               	line	88
  3136                           ;Display_LCD.c: 88:     if( i == 0x01 || i == 0x02 )
  3137                           		decf	((dispLCD_instReg@i)),w
  3138  0593  0372               	btfsc	status,2
  3139  0594  1903               	goto	u381
  3140  0595  2D97               	goto	u380
  3141  0596  2D98               u381:
  3142  0597                     	goto	l1011
  3143  0597  2D9F               u380:
  3144  0598                     	
  3145                           l1009:	
  3146  0598                     		movlw	2
  3147  0598  3002               	xorwf	((dispLCD_instReg@i)),w
  3148  0599  0672               	btfss	status,2
  3149  059A  1D03               	goto	u391
  3150  059B  2D9D               	goto	u390
  3151  059C  2D9E               u391:
  3152  059D                     	goto	l1013
  3153  059D  2DA9               u390:
  3154  059E                     	goto	l1011
  3155  059E  2D9F               	
  3156                           l11:	
  3157  059F                     	line	89
  3158                           	
  3159                           l1011:	
  3160  059F                     ;Display_LCD.c: 89:         _delay((unsigned long)((2)*(4000000/4000.0)));
  3161                           	opt asmopt_push
  3162                           opt asmopt_off
  3163                           movlw	3
  3164  059F  3003               movwf	((??_dispLCD_instReg+0)+0+1),f
  3165  05A0  00F1               	movlw	151
  3166  05A1  3097               movwf	((??_dispLCD_instReg+0)+0),f
  3167  05A2  00F0               	u737:
  3168  05A3                     decfsz	((??_dispLCD_instReg+0)+0),f
  3169  05A3  0BF0               	goto	u737
  3170  05A4  2DA3               	decfsz	((??_dispLCD_instReg+0)+0+1),f
  3171  05A5  0BF1               	goto	u737
  3172  05A6  2DA3               	nop2
  3173  05A7  2DA8               opt asmopt_pop
  3174                           
  3175                           	goto	l1015
  3176  05A8  2DAE               	line	90
  3177                           ;Display_LCD.c: 90:     else
  3178                           	
  3179                           l9:	
  3180  05A9                     	line	91
  3181                           	
  3182                           l1013:	
  3183  05A9                     ;Display_LCD.c: 91:         _delay((unsigned long)((40)*(4000000/4000000.0)));
  3184                           	opt asmopt_push
  3185                           opt asmopt_off
  3186                           	movlw	13
  3187  05A9  300D               movwf	((??_dispLCD_instReg+0)+0),f
  3188  05AA  00F0               	u747:
  3189  05AB                     decfsz	(??_dispLCD_instReg+0)+0,f
  3190  05AB  0BF0               	goto	u747
  3191  05AC  2DAB               opt asmopt_pop
  3192                           
  3193                           	goto	l1015
  3194  05AD  2DAE               	
  3195                           l12:	
  3196  05AE                     	line	92
  3197                           	
  3198                           l1015:	
  3199  05AE                     ;Display_LCD.c: 92:     LCDbits.EN = 1;
  3200                           	bcf	status, 5	;RP0=0, select bank0
  3201  05AE  1283               	bcf	status, 6	;RP1=0, select bank0
  3202  05AF  1303               	bsf	(8),3	;volatile
  3203  05B0  1588               	line	95
  3204                           	
  3205                           l1017:	
  3206  05B1                     ;Display_LCD.c: 95:     if( (i & 0xF0) == (0x20 | 0x00) )
  3207                           	movlw	low(0F0h)
  3208  05B1  30F0               	andwf	(dispLCD_instReg@i),w
  3209  05B2  0572               	movwf	(??_dispLCD_instReg+0)+0
  3210  05B3  00F0               		movlw	32
  3211  05B4  3020               	xorwf	((??_dispLCD_instReg+0)+0),w
  3212  05B5  0670               	btfss	status,2
  3213  05B6  1D03               	goto	u401
  3214  05B7  2DB9               	goto	u400
  3215  05B8  2DBA               u401:
  3216  05B9                     	goto	l1029
  3217  05B9  2DD4               u400:
  3218  05BA                     	line	97
  3219                           	
  3220                           l1019:	
  3221  05BA                     ;Display_LCD.c: 96:     {;Display_LCD.c: 97:         LCDbits.RS = 0;
  3222                           	bcf	(8),2	;volatile
  3223  05BA  1108               	line	98
  3224                           	
  3225                           l1021:	
  3226  05BB                     ;Display_LCD.c: 98:         LCDbits.BUS = i>>4;
  3227                           	movf	(dispLCD_instReg@i),w
  3228  05BB  0872               	movwf	(??_dispLCD_instReg+0)+0
  3229  05BC  00F0               	movlw	04h
  3230  05BD  3004               u415:
  3231  05BE                     	clrc
  3232  05BE  1003               	rrf	(??_dispLCD_instReg+0)+0,f
  3233  05BF  0CF0               	addlw	-1
  3234  05C0  3EFF               	skipz
  3235  05C1  1D03               	goto	u415
  3236  05C2  2DBE               	movf	0+(??_dispLCD_instReg+0)+0,w
  3237  05C3  0870               	movwf	(??_dispLCD_instReg+1)+0
  3238  05C4  00F1               	swapf	(??_dispLCD_instReg+1)+0,f
  3239  05C5  0EF1               	movf	(8),w	;volatile
  3240  05C6  0808               	xorwf	(??_dispLCD_instReg+1)+0,w
  3241  05C7  0671               	andlw	not (((1<<4)-1)<<4)
  3242  05C8  390F               	xorwf	(??_dispLCD_instReg+1)+0,w
  3243  05C9  0671               	movwf	(8)	;volatile
  3244  05CA  0088               	line	99
  3245                           	
  3246                           l1023:	
  3247  05CB                     ;Display_LCD.c: 99:         LCDbits.EN = 0;
  3248                           	bcf	(8),3	;volatile
  3249  05CB  1188               	line	100
  3250                           	
  3251                           l1025:	
  3252  05CC                     ;Display_LCD.c: 100:         _delay((unsigned long)((40)*(4000000/4000000.0)));
  3253                           	opt asmopt_push
  3254                           opt asmopt_off
  3255                           	movlw	13
  3256  05CC  300D               movwf	((??_dispLCD_instReg+0)+0),f
  3257  05CD  00F0               	u757:
  3258  05CE                     decfsz	(??_dispLCD_instReg+0)+0,f
  3259  05CE  0BF0               	goto	u757
  3260  05CF  2DCE               opt asmopt_pop
  3261                           
  3262                           	line	101
  3263                           	
  3264                           l1027:	
  3265  05D0                     ;Display_LCD.c: 101:         LCDbits.EN = 1;
  3266                           	bcf	status, 5	;RP0=0, select bank0
  3267  05D0  1283               	bcf	status, 6	;RP1=0, select bank0
  3268  05D1  1303               	bsf	(8),3	;volatile
  3269  05D2  1588               	goto	l1029
  3270  05D3  2DD4               	line	102
  3271                           ;Display_LCD.c: 102:     }
  3272                           	
  3273                           l13:	
  3274  05D4                     	line	104
  3275                           	
  3276                           l1029:	
  3277  05D4                     ;Display_LCD.c: 104:     LCDbits.RS = 0;
  3278                           	bcf	(8),2	;volatile
  3279  05D4  1108               	line	105
  3280                           	
  3281                           l1031:	
  3282  05D5                     ;Display_LCD.c: 105:     LCDbits.BUS = i & 0x0F;
  3283                           	movf	(dispLCD_instReg@i),w
  3284  05D5  0872               	andlw	0Fh
  3285  05D6  390F               	movwf	(??_dispLCD_instReg+0)+0
  3286  05D7  00F0               	swapf	(??_dispLCD_instReg+0)+0,f
  3287  05D8  0EF0               	movf	(8),w	;volatile
  3288  05D9  0808               	xorwf	(??_dispLCD_instReg+0)+0,w
  3289  05DA  0670               	andlw	not (((1<<4)-1)<<4)
  3290  05DB  390F               	xorwf	(??_dispLCD_instReg+0)+0,w
  3291  05DC  0670               	movwf	(8)	;volatile
  3292  05DD  0088               	line	106
  3293                           	
  3294                           l1033:	
  3295  05DE                     ;Display_LCD.c: 106:     LCDbits.EN = 0;
  3296                           	bcf	(8),3	;volatile
  3297  05DE  1188               	line	107
  3298                           	
  3299                           l1035:	
  3300  05DF                     ;Display_LCD.c: 107:     if( i == 0x01 || i == 0x02 )
  3301                           		decf	((dispLCD_instReg@i)),w
  3302  05DF  0372               	btfsc	status,2
  3303  05E0  1903               	goto	u421
  3304  05E1  2DE3               	goto	u420
  3305  05E2  2DE4               u421:
  3306  05E3                     	goto	l1039
  3307  05E3  2DEB               u420:
  3308  05E4                     	
  3309                           l1037:	
  3310  05E4                     		movlw	2
  3311  05E4  3002               	xorwf	((dispLCD_instReg@i)),w
  3312  05E5  0672               	btfss	status,2
  3313  05E6  1D03               	goto	u431
  3314  05E7  2DE9               	goto	u430
  3315  05E8  2DEA               u431:
  3316  05E9                     	goto	l1041
  3317  05E9  2DF5               u430:
  3318  05EA                     	goto	l1039
  3319  05EA  2DEB               	
  3320                           l16:	
  3321  05EB                     	line	108
  3322                           	
  3323                           l1039:	
  3324  05EB                     ;Display_LCD.c: 108:         _delay((unsigned long)((2)*(4000000/4000.0)));
  3325                           	opt asmopt_push
  3326                           opt asmopt_off
  3327                           movlw	3
  3328  05EB  3003               movwf	((??_dispLCD_instReg+0)+0+1),f
  3329  05EC  00F1               	movlw	151
  3330  05ED  3097               movwf	((??_dispLCD_instReg+0)+0),f
  3331  05EE  00F0               	u767:
  3332  05EF                     decfsz	((??_dispLCD_instReg+0)+0),f
  3333  05EF  0BF0               	goto	u767
  3334  05F0  2DEF               	decfsz	((??_dispLCD_instReg+0)+0+1),f
  3335  05F1  0BF1               	goto	u767
  3336  05F2  2DEF               	nop2
  3337  05F3  2DF4               opt asmopt_pop
  3338                           
  3339                           	goto	l1043
  3340  05F4  2DFA               	line	109
  3341                           ;Display_LCD.c: 109:     else
  3342                           	
  3343                           l14:	
  3344  05F5                     	line	110
  3345                           	
  3346                           l1041:	
  3347  05F5                     ;Display_LCD.c: 110:         _delay((unsigned long)((40)*(4000000/4000000.0)));
  3348                           	opt asmopt_push
  3349                           opt asmopt_off
  3350                           	movlw	13
  3351  05F5  300D               movwf	((??_dispLCD_instReg+0)+0),f
  3352  05F6  00F0               	u777:
  3353  05F7                     decfsz	(??_dispLCD_instReg+0)+0,f
  3354  05F7  0BF0               	goto	u777
  3355  05F8  2DF7               opt asmopt_pop
  3356                           
  3357                           	goto	l1043
  3358  05F9  2DFA               	
  3359                           l17:	
  3360  05FA                     	line	111
  3361                           	
  3362                           l1043:	
  3363  05FA                     ;Display_LCD.c: 111:     LCDbits.EN = 1;
  3364                           	bcf	status, 5	;RP0=0, select bank0
  3365  05FA  1283               	bcf	status, 6	;RP1=0, select bank0
  3366  05FB  1303               	bsf	(8),3	;volatile
  3367  05FC  1588               	line	112
  3368                           	
  3369                           l18:	
  3370  05FD                     	return
  3371  05FD  0008               	opt stack 0
  3372                           GLOBAL	__end_of_dispLCD_instReg
  3373                           	__end_of_dispLCD_instReg:
  3374  05FE                     	signat	_dispLCD_instReg,4217
  3375                           	global	_dispLCD_dataReg
  3376                           
  3377 ;; *************** function _dispLCD_dataReg *****************
  3378 ;; Defined at:
  3379 ;;		line 115 in file "Display_LCD.c"
  3380 ;; Parameters:    Size  Location     Type
  3381 ;;  d               1    wreg     unsigned char 
  3382 ;; Auto vars:     Size  Location     Type
  3383 ;;  d               1    2[COMMON] unsigned char 
  3384 ;; Return value:  Size  Location     Type
  3385 ;;                  1    wreg      void 
  3386 ;; Registers used:
  3387 ;;		wreg, status,2, status,0
  3388 ;; Tracked objects:
  3389 ;;		On entry : 0/0
  3390 ;;		On exit  : 0/0
  3391 ;;		Unchanged: 0/0
  3392 ;; Data sizes:     COMMON   BANK0   BANK1   BANK3   BANK2
  3393 ;;      Params:         0       0       0       0       0
  3394 ;;      Locals:         1       0       0       0       0
  3395 ;;      Temps:          2       0       0       0       0
  3396 ;;      Totals:         3       0       0       0       0
  3397 ;;Total ram usage:        3 bytes
  3398 ;; Hardware stack levels used:    1
  3399 ;; This function calls:
  3400 ;;		Nothing
  3401 ;; This function is called by:
  3402 ;;		_dispLCD
  3403 ;; This function uses a non-reentrant model
  3404 ;;
  3405                           psect	text7,local,class=CODE,delta=2,merge=1,group=0
  3406                           	line	115
  3407                           global __ptext7
  3408                           __ptext7:	;psect for function _dispLCD_dataReg
  3409  04B0                     psect	text7
  3410                           	file	"Display_LCD.c"
  3411                           	line	115
  3412                           	global	__size_of_dispLCD_dataReg
  3413                           	__size_of_dispLCD_dataReg	equ	__end_of_dispLCD_dataReg-_dispLCD_dataReg
  3414  002F                     	
  3415                           _dispLCD_dataReg:	
  3416  04B0                     ;incstack = 0
  3417                           	opt	stack 6
  3418                           ; Regs used in _dispLCD_dataReg: [wreg+status,2+status,0]
  3419                           ;dispLCD_dataReg@d stored from wreg
  3420                           	movwf	(dispLCD_dataReg@d)
  3421  04B0  00F2               	line	117
  3422                           	
  3423                           l1045:	
  3424  04B1                     ;Display_LCD.c: 115: void dispLCD_dataReg( unsigned char d );Display_LCD.c: 116: {;Displ
                                 ay_LCD.c: 117:     LCDbits.RS = 1;
  3425                           	bcf	status, 5	;RP0=0, select bank0
  3426  04B1  1283               	bcf	status, 6	;RP1=0, select bank0
  3427  04B2  1303               	bsf	(8),2	;volatile
  3428  04B3  1508               	line	118
  3429                           	
  3430                           l1047:	
  3431  04B4                     ;Display_LCD.c: 118:     LCDbits.BUS = d >> 4;
  3432                           	movf	(dispLCD_dataReg@d),w
  3433  04B4  0872               	movwf	(??_dispLCD_dataReg+0)+0
  3434  04B5  00F0               	movlw	04h
  3435  04B6  3004               u445:
  3436  04B7                     	clrc
  3437  04B7  1003               	rrf	(??_dispLCD_dataReg+0)+0,f
  3438  04B8  0CF0               	addlw	-1
  3439  04B9  3EFF               	skipz
  3440  04BA  1D03               	goto	u445
  3441  04BB  2CB7               	movf	0+(??_dispLCD_dataReg+0)+0,w
  3442  04BC  0870               	movwf	(??_dispLCD_dataReg+1)+0
  3443  04BD  00F1               	swapf	(??_dispLCD_dataReg+1)+0,f
  3444  04BE  0EF1               	movf	(8),w	;volatile
  3445  04BF  0808               	xorwf	(??_dispLCD_dataReg+1)+0,w
  3446  04C0  0671               	andlw	not (((1<<4)-1)<<4)
  3447  04C1  390F               	xorwf	(??_dispLCD_dataReg+1)+0,w
  3448  04C2  0671               	movwf	(8)	;volatile
  3449  04C3  0088               	line	119
  3450                           	
  3451                           l1049:	
  3452  04C4                     ;Display_LCD.c: 119:     LCDbits.EN = 0;
  3453                           	bcf	(8),3	;volatile
  3454  04C4  1188               	line	120
  3455                           	
  3456                           l1051:	
  3457  04C5                     ;Display_LCD.c: 120:     _delay((unsigned long)((40)*(4000000/4000000.0)));
  3458                           	opt asmopt_push
  3459                           opt asmopt_off
  3460                           	movlw	13
  3461  04C5  300D               movwf	((??_dispLCD_dataReg+0)+0),f
  3462  04C6  00F0               	u787:
  3463  04C7                     decfsz	(??_dispLCD_dataReg+0)+0,f
  3464  04C7  0BF0               	goto	u787
  3465  04C8  2CC7               opt asmopt_pop
  3466                           
  3467                           	line	121
  3468                           	
  3469                           l1053:	
  3470  04C9                     ;Display_LCD.c: 121:     LCDbits.EN = 1;
  3471                           	bcf	status, 5	;RP0=0, select bank0
  3472  04C9  1283               	bcf	status, 6	;RP1=0, select bank0
  3473  04CA  1303               	bsf	(8),3	;volatile
  3474  04CB  1588               	line	123
  3475                           	
  3476                           l1055:	
  3477  04CC                     ;Display_LCD.c: 123:     LCDbits.RS = 1;
  3478                           	bsf	(8),2	;volatile
  3479  04CC  1508               	line	124
  3480                           	
  3481                           l1057:	
  3482  04CD                     ;Display_LCD.c: 124:     LCDbits.BUS = d & 0x0F;
  3483                           	movf	(dispLCD_dataReg@d),w
  3484  04CD  0872               	andlw	0Fh
  3485  04CE  390F               	movwf	(??_dispLCD_dataReg+0)+0
  3486  04CF  00F0               	swapf	(??_dispLCD_dataReg+0)+0,f
  3487  04D0  0EF0               	movf	(8),w	;volatile
  3488  04D1  0808               	xorwf	(??_dispLCD_dataReg+0)+0,w
  3489  04D2  0670               	andlw	not (((1<<4)-1)<<4)
  3490  04D3  390F               	xorwf	(??_dispLCD_dataReg+0)+0,w
  3491  04D4  0670               	movwf	(8)	;volatile
  3492  04D5  0088               	line	125
  3493                           	
  3494                           l1059:	
  3495  04D6                     ;Display_LCD.c: 125:     LCDbits.EN = 0;
  3496                           	bcf	(8),3	;volatile
  3497  04D6  1188               	line	126
  3498                           ;Display_LCD.c: 126:     _delay((unsigned long)((40)*(4000000/4000000.0)));
  3499                           	opt asmopt_push
  3500                           opt asmopt_off
  3501                           	movlw	13
  3502  04D7  300D               movwf	((??_dispLCD_dataReg+0)+0),f
  3503  04D8  00F0               	u797:
  3504  04D9                     decfsz	(??_dispLCD_dataReg+0)+0,f
  3505  04D9  0BF0               	goto	u797
  3506  04DA  2CD9               opt asmopt_pop
  3507                           
  3508                           	line	127
  3509                           	
  3510                           l1061:	
  3511  04DB                     ;Display_LCD.c: 127:     LCDbits.EN = 1;
  3512                           	bcf	status, 5	;RP0=0, select bank0
  3513  04DB  1283               	bcf	status, 6	;RP1=0, select bank0
  3514  04DC  1303               	bsf	(8),3	;volatile
  3515  04DD  1588               	line	128
  3516                           	
  3517                           l21:	
  3518  04DE                     	return
  3519  04DE  0008               	opt stack 0
  3520                           GLOBAL	__end_of_dispLCD_dataReg
  3521                           	__end_of_dispLCD_dataReg:
  3522  04DF                     	signat	_dispLCD_dataReg,4217
  3523                           	global	_delay
  3524                           
  3525 ;; *************** function _delay *****************
  3526 ;; Defined at:
  3527 ;;		line 4 in file "delay.c"
  3528 ;; Parameters:    Size  Location     Type
  3529 ;;  t               2    0[COMMON] unsigned int 
  3530 ;; Auto vars:     Size  Location     Type
  3531 ;;		None
  3532 ;; Return value:  Size  Location     Type
  3533 ;;                  1    wreg      void 
  3534 ;; Registers used:
  3535 ;;		wreg, status,2, status,0
  3536 ;; Tracked objects:
  3537 ;;		On entry : 0/0
  3538 ;;		On exit  : 0/0
  3539 ;;		Unchanged: 0/0
  3540 ;; Data sizes:     COMMON   BANK0   BANK1   BANK3   BANK2
  3541 ;;      Params:         2       0       0       0       0
  3542 ;;      Locals:         0       0       0       0       0
  3543 ;;      Temps:          1       0       0       0       0
  3544 ;;      Totals:         3       0       0       0       0
  3545 ;;Total ram usage:        3 bytes
  3546 ;; Hardware stack levels used:    1
  3547 ;; This function calls:
  3548 ;;		Nothing
  3549 ;; This function is called by:
  3550 ;;		_main
  3551 ;; This function uses a non-reentrant model
  3552 ;;
  3553                           psect	text8,local,class=CODE,delta=2,merge=1,group=0
  3554                           	file	"delay.c"
  3555                           	line	4
  3556                           global __ptext8
  3557                           __ptext8:	;psect for function _delay
  3558  045B                     psect	text8
  3559                           	file	"delay.c"
  3560                           	line	4
  3561                           	global	__size_of_delay
  3562                           	__size_of_delay	equ	__end_of_delay-_delay
  3563  0017                     	
  3564                           _delay:	
  3565  045B                     ;incstack = 0
  3566                           	opt	stack 7
  3567                           ; Regs used in _delay: [wreg+status,2+status,0]
  3568                           	line	6
  3569                           	
  3570                           l1081:	
  3571  045B                     ;delay.c: 4: void delay( unsigned int t );delay.c: 5: {;delay.c: 6:     while( t )
  3572                           	goto	l1085
  3573  045B  2C6A               	
  3574                           l42:	
  3575  045C                     	line	8
  3576                           	
  3577                           l1083:	
  3578  045C                     ;delay.c: 7:     {;delay.c: 8:         _delay((unsigned long)((1)*(4000000/4000.0)));
  3579                           	opt asmopt_push
  3580                           opt asmopt_off
  3581                           	movlw	199
  3582  045C  30C7               movwf	((??_delay+0)+0),f
  3583  045D  00F2               	u807:
  3584  045E                     	nop2
  3585  045E  2C5F               decfsz	(??_delay+0)+0,f
  3586  045F  0BF2               	goto	u807
  3587  0460  2C5E               	nop2
  3588  0461  2C62               	nop2
  3589  0462  2C63               opt asmopt_pop
  3590                           
  3591                           	line	9
  3592                           ;delay.c: 9:         --t;
  3593                           	movlw	01h
  3594  0463  3001               	subwf	(delay@t),f
  3595  0464  02F0               	movlw	0
  3596  0465  3000               	skipc
  3597  0466  1C03               	decf	(delay@t+1),f
  3598  0467  03F1               	subwf	(delay@t+1),f
  3599  0468  02F1               	goto	l1085
  3600  0469  2C6A               	line	10
  3601                           ;delay.c: 10:     }
  3602                           	
  3603                           l41:	
  3604  046A                     	line	6
  3605                           	
  3606                           l1085:	
  3607  046A                     ;delay.c: 6:     while( t )
  3608                           	movf	((delay@t)),w
  3609  046A  0870               iorwf	((delay@t+1)),w
  3610  046B  0471               	btfss	status,2
  3611  046C  1D03               	goto	u471
  3612  046D  2C6F               	goto	u470
  3613  046E  2C70               u471:
  3614  046F                     	goto	l1083
  3615  046F  2C5C               u470:
  3616  0470                     	goto	l44
  3617  0470  2C71               	
  3618                           l43:	
  3619  0471                     	line	11
  3620                           	
  3621                           l44:	
  3622  0471                     	return
  3623  0471  0008               	opt stack 0
  3624                           GLOBAL	__end_of_delay
  3625                           	__end_of_delay:
  3626  0472                     	signat	_delay,4217
  3627                           global	___latbits
  3628                           ___latbits	equ	2
  3629  0002                     	global	btemp
  3630                           	btemp set 07Eh
  3631  007E                     
  3632                           	DABS	1,126,2	;btemp
  3633                           	global	wtemp0
  3634                           	wtemp0 set btemp+0
  3635  007E                     	end


Data Sizes:
    Strings     153
    Constant    0
    Data        26
    BSS         0
    Persistent  0
    Stack       0

Auto Spaces:
    Space          Size  Autos    Used
    COMMON           14     14      14
    BANK0            80     16      42
    BANK1            80      0       0
    BANK3            96      0       0
    BANK2            96      0       0

Pointer List with Targets:

    dispLCD@str	PTR const unsigned char  size(2) Largest target is 17
		 -> STR_9(CODE[17]), STR_8(CODE[17]), STR_7(CODE[17]), STR_6(CODE[17]), 
		 -> STR_5(CODE[17]), STR_4(CODE[17]), STR_3(CODE[17]), STR_2(CODE[17]), 
		 -> STR_1(CODE[17]), main@password(BANK0[5]), 


Critical Paths under _main in COMMON

    _main->_dispLCD
    _dispLCD_init->_dispLCD_instReg
    _dispLCD->_dispLCD_lincol
    _dispLCD_lincol->_dispLCD_instReg

Critical Paths under _main in BANK0

    None.

Critical Paths under _main in BANK1

    None.

Critical Paths under _main in BANK3

    None.

Critical Paths under _main in BANK2

    None.

Call Graph Tables:

 ---------------------------------------------------------------------------------
 (Depth) Function   	        Calls       Base Space   Used Autos Params    Refs
 ---------------------------------------------------------------------------------
 (0) _main                                                18    18      0    3083
                                             12 COMMON     2     2      0
                                              0 BANK0     16    16      0
                              _delay
                            _dispLCD
                       _dispLCD_init
                            _teclado
                       _teclado_init
 ---------------------------------------------------------------------------------
 (1) _teclado_init                                         0     0      0       0
 ---------------------------------------------------------------------------------
 (1) _teclado                                              9     7      2     204
                                              0 COMMON     9     7      2
 ---------------------------------------------------------------------------------
 (1) _dispLCD_init                                         0     0      0     176
                    _dispLCD_instReg
 ---------------------------------------------------------------------------------
 (1) _dispLCD                                              6     3      3    1973
                                              6 COMMON     6     3      3
                    _dispLCD_dataReg
                     _dispLCD_lincol
 ---------------------------------------------------------------------------------
 (2) _dispLCD_lincol                                       3     2      1     296
                                              3 COMMON     3     2      1
                    _dispLCD_instReg
 ---------------------------------------------------------------------------------
 (2) _dispLCD_instReg                                      3     3      0     176
                                              0 COMMON     3     3      0
 ---------------------------------------------------------------------------------
 (2) _dispLCD_dataReg                                      3     3      0      44
                                              0 COMMON     3     3      0
 ---------------------------------------------------------------------------------
 (1) _delay                                                3     1      2      99
                                              0 COMMON     3     1      2
 ---------------------------------------------------------------------------------
 Estimated maximum stack depth 2
 ---------------------------------------------------------------------------------

 Call Graph Graphs:

 _main (ROOT)
   _delay
   _dispLCD
     _dispLCD_dataReg
     _dispLCD_lincol
       _dispLCD_instReg
   _dispLCD_init
     _dispLCD_instReg
   _teclado
   _teclado_init

 Address spaces:
Name               Size   Autos  Total    Cost      Usage
BANK3               60      0       0       9        0.0%
BITBANK3            60      0       0       8        0.0%
SFR3                 0      0       0       4        0.0%
BITSFR3              0      0       0       4        0.0%
BANK2               60      0       0      11        0.0%
BITBANK2            60      0       0      10        0.0%
SFR2                 0      0       0       5        0.0%
BITSFR2              0      0       0       5        0.0%
BANK1               50      0       0       7        0.0%
BITBANK1            50      0       0       6        0.0%
SFR1                 0      0       0       2        0.0%
BITSFR1              0      0       0       2        0.0%
BANK0               50     10      2A       5       52.5%
BITBANK0            50      0       0       4        0.0%
SFR0                 0      0       0       1        0.0%
BITSFR0              0      0       0       1        0.0%
COMMON               E      E       E       1      100.0%
BITCOMMON            E      0       0       0        0.0%
CODE                 0      0       0       0        0.0%
DATA                 0      0      38      12        0.0%
ABS                  0      0      38       3        0.0%
NULL                 0      0       0       0        0.0%
STACK                0      0       0       2        0.0%
EEDATA             100      0       0       0        0.0%


Microchip Technology PIC Macro Assembler V2.00 build -1524193055 
Symbol Table                                                                                   Thu May 13 16:49:28 2021

                       l9 05A9                         pc 0002               __CFG_CP$OFF 0000  
                      l11 059F                        l12 05AE                        l21 04DE  
                      l13 05D4                        l14 05F5                        l30 0508  
                      l31 04EF                        l16 05EB                        l24 0447  
                      l32 0519                        l41 046A                        l17 05FA  
                      l33 0519                        l42 045C                        l18 05FD  
                      l43 0471                        l27 04AF                        l44 0471  
                      l70 068E                        l71 06AF                        l63 063A  
                      l80 07C7                        l64 071C                        l72 06B0  
                      l81 073C                        l73 06C6                        l65 0646  
                      l82 07E9                        l90 077B                        l66 073B  
                      l74 06E1                        l91 077C                        l83 073D  
                      l75 06EC                        l67 065F                        l92 0787  
                      l84 074E                        l76 06ED                        l68 0682  
                      l93 07B3                        l85 074F                        l77 0703  
                      l69 068D                        l94 07A0                        l86 075C  
                      l78 0704                        l95 07BE                        l87 0766  
                      l79 071A                        l96 07C3                        l88 0767  
                      l97 07C4                        l89 0776                        l98 07C5  
                      l99 07EA   __end_of_dispLCD_dataReg 04DF                        fsr 0004  
                     l100 07EB                       l101 07EB                       l110 0434  
                     l120 057D                       l115 0524                       l116 0575  
                     l117 053A                       l118 056A                       l119 055F  
                     u400 05BA                       u401 05B9                       u420 05E4  
                     u500 0538                       u421 05E3                       u501 0537  
                     u430 05EA                       u431 05E9                       u415 05BE  
                     u520 0549                       u600 06E7                       u521 0548  
                     u601 06E6                       u514 0540                       u610 0700  
            __CFG_CPD$OFF 0000                       u515 053E                       u611 06FF  
                     u380 0598                       u460 0518                       u540 0569  
                     u700 079D                       u620 0717                       u445 04B7  
                     u381 0597                       u461 0517                       u541 0568  
                     u621 0716                       u470 0470                       u390 059E  
                     u550 0574                       u710 07B2                       u630 0743  
                     u471 046F                       u391 059D                       u375 0585  
                     u455 0439                       u551 0573                       u535 054C  
                     u711 07B1                       u631 0742                       u480 0522  
                     u720 07B9                       u640 0749                       u560 067D  
                     u481 0521                       u721 07B8                       u641 0748  
                     u561 067C                       u650 0761                       u570 0688  
                     u651 0760                       u571 0687                       u660 0771  
                     u580 06AC                       u661 0770                       u581 06AB  
                     u494 052A                       u670 0785                       u590 06DC  
                     u807 045E                       u495 0528                       u671 0784  
                     u591 06DB                       u680 078C                       u737 05A3  
                     u681 078B                       u690 079C                       u747 05AB  
                     u691 079A                       u757 05CE                       u767 05EF  
                     u777 05F7                       u787 04C7                       u797 04D9  
                     fsr0 0004                       indf 0000   __end_of_dispLCD_instReg 05FE  
            __CFG_LVP$OFF 0000                      l1011 059F                      l1003 057F  
                    l1021 05BB                      l1013 05A9                      l1005 0582  
                    l1101 0531                      l1031 05D5                      l1023 05CB  
                    l1015 05AE                      l1007 0592                      l1111 055F  
                    l1103 0532                      l1041 05F5                      l1033 05DE  
                    l1025 05CC                      l1017 05B1                      l1009 0598  
                    l1121 057D                      l1113 0563                      l1105 0539  
                    l1201 0757                      l1051 04C5                      l1043 05FA  
                    l1035 05DF                      l1027 05D0                      l1019 05BA  
                    l1115 056A                      l1107 053A                      l1211 0771  
                    l1203 075C                      l1131 0624                      l1061 04DB  
                    l1053 04C9                      l1045 04B1                      l1037 05E4  
                    l1029 05D4                      l1117 056E                      l1109 0549  
                    l1221 0787                      l1213 0776                      l1205 0761  
                    l1141 0651                      l1133 0629                      l1125 05FE  
                    l1055 04CC                      l1047 04B4                      l1039 05EB  
                    l1063 0436                      l1071 04E4                      l1119 0575  
                    l1231 07B4                      l1223 078C                      l1215 077E  
                    l1207 0767                      l1151 0682                      l1143 065A  
                    l1135 062E                      l1127 0602                      l1081 045B  
                    l1057 04CD                      l1049 04C4                      l1073 04EF  
                    l1065 048C                      l1233 07B9                      l1225 07A8  
                    l1217 077F                      l1209 076B                      l1313 0724  
                    l1161 06B0                      l1153 0688                      l1145 065F  
                    l1137 063A                      l1129 0613                      l1083 045C  
                    l1059 04D6                      l1075 04FF                      l1067 0497  
                    l1091 0431                      l1315 07CF                      l1235 07BE  
                    l1227 07AC                      l1219 0786                      l1171 06DC  
                    l1163 06BB                      l1155 068E                      l1147 0675  
                    l1139 0646                      l1085 046A                      l1077 0503  
                    l1069 04E0                      l1093 051A                      l1237 07C6  
                    l1229 07B3                      l1181 0700                      l1173 06E1  
                    l1165 06C1                      l1157 06A4                      l1149 067D  
                    l1079 0508                      l1095 051C                      l1087 042A  
                    l1183 0704                      l1175 06E7                      l1167 06C6  
                    l1159 06AC                      l1239 07C7                      l1191 071C  
                    l1097 0523                      l1089 042D                      l1193 073D  
                    l1185 070F                      l1177 06ED                      l1169 06D4  
                    l1099 0524                      l1195 0743                      l1187 0717  
                    l1179 06F8                      l1197 0749                      l1189 071B  
                    l1199 074F                      STR_1 0035                      STR_2 0057  
                    STR_3 0068                      STR_4 009B                      STR_5 0046  
                    STR_6 0013                      STR_7 0024                      STR_8 0079  
                    STR_9 008A              __CFG_WRT$OFF 0000                      _main 05FE  
                    btemp 007E                      start 0000             __CFG_IESO$OFF 0000  
                   ?_main 0070             __CFG_WDTE$OFF 0000                     _PORTB 0006  
                   _TRISB 0086           __end_of_dispLCD 051A            __CFG_FCMEN$OFF 0000  
                   _delay 045B              main@password 003F                     main@i 0048  
         __end_of_teclado 057E            __CFG_BOREN$OFF 0000                     pclath 000A  
                   status 0003                     wtemp0 007E      __end_of_dispLCD_init 04B0  
          __CFG_MCLRE$OFF 0000           __initialization 07EE              __end_of_main 07EE  
        ?_dispLCD_dataReg 0070                    ??_main 007C          ?_dispLCD_instReg 0070  
                  ?_delay 0070                    _ANSELH 0189            __CFG_PWRTE$OFF 0000  
                  delay@t 0070                 ??_dispLCD 0079                 ??_teclado 0072  
 __end_of__initialization 07FC   __size_of_dispLCD_lincol 0013            __pcstackCOMMON 0070  
            __pidataBANK0 0472             __end_of_delay 0472                   ??_delay 0072  
   __size_of_dispLCD_init 0024             ?_teclado_init 0070                __pmaintext 05FE  
                 _LCDbits 0008              _dispLCD_init 048C                __stringtab 0003  
          ??_teclado_init 0070                _tabTeclado 0020                   _dispLCD 04DF  
                 __ptext1 042A                   __ptext2 051A                   __ptext3 048C  
                 __ptext4 04DF                   __ptext5 0435                   __ptext6 057E  
                 __ptext7 04B0                   __ptext8 045B                   _teclado 051A  
                 main@aux 0044      end_of_initialization 07FC            _dispLCD_lincol 0435  
              dispLCD@col 0076                dispLCD@lin 007B                dispLCD@pos 007A  
              dispLCD@str 0077          main@estado_senha 0047                 _TRISDbits 0088  
__size_of_dispLCD_dataReg 002F    __end_of_dispLCD_lincol 0448  __size_of_dispLCD_instReg 0080  
              main@estado 0046                main@passwd 003A      __end_of_teclado_init 0435  
     start_initialization 07EE           ?_dispLCD_lincol 0073  __CFG_FOSC$INTRC_NOCLKOUT 0000  
       dispLCD_lincol@col 0073         dispLCD_lincol@lin 0075                init_fetch0 0448  
             __pdataBANK0 0020                 ___latbits 0002             __pcstackBANK0 003A  
       ??_dispLCD_dataReg 0070         ??_dispLCD_instReg 0070                  ?_dispLCD 0076  
               __pstrings 0003           main@cont_passwd 0045              teclado@tecla 0076  
                ?_teclado 0070            __size_of_delay 0017     __size_of_teclado_init 000B  
               main@F1282 0035                 main@F1284 0030          dispLCD_dataReg@d 0072  
             __stringbase 0012                 main@tecla 0049              _teclado_init 042A  
        dispLCD_instReg@i 0072        __end_of__stringtab 0013          __size_of_dispLCD 003B  
        ??_dispLCD_lincol 0074          __size_of_teclado 0064         __CFG_BOR4V$BOR40V 0000  
           __size_of_main 01F0             ?_dispLCD_init 0070           _dispLCD_dataReg 04B0  
                init_ram0 044C           _dispLCD_instReg 057E                  teclado@c 0077  
                teclado@l 0078                 stringcode 000D            ??_dispLCD_init 0073  
                stringdir 000D                  stringtab 0003  
